(dp0
S'ATCO POWER LTD'
p1
cnumpy.core.multiarray
_reconstruct
p2
(cnumpy
ndarray
p3
(I0
tp4
S'b'
p5
tp6
Rp7
(I1
(I2
tp8
cnumpy
dtype
p9
(S'f4'
p10
I0
I1
tp11
Rp12
(I3
S'<'
p13
NNNI-1
I-1
I0
tp14
bI00
S'h\xef\x90\xc3\xcdg\xb6B'
p15
tp16
bsS'JSC BALKHASH TPP'
p17
g2
(g3
(I0
tp18
g5
tp19
Rp20
(I1
(I2
tp21
g12
I00
S'f\xfcKC\x83\xee_C'
p22
tp23
bsS'COPEL - CIA PARANAENSE ENERGIA'
p24
g2
(g3
(I0
tp25
g5
tp26
Rp27
(I1
(I2
tp28
g12
I00
S'\x01\xb8\x1e\xc3`\xb3\xec\xc2'
p29
tp30
bsS'HENAN INVESTMENT GROUP CO LTD'
p31
g2
(g3
(I0
tp32
g5
tp33
Rp34
(I1
(I2
tp35
g12
I00
S's\x13#C\xc2\x84"C'
p36
tp37
bsS'E.ON KERNKRAFT GMBH'
p38
g2
(g3
(I0
tp39
g5
tp40
Rp41
(I1
(I2
tp42
g12
I00
S'o\xa5T\xc2?Q\xd6\xc1'
p43
tp44
bsS'SEMINOLE ELECTRIC COOP INC'
p45
g2
(g3
(I0
tp46
g5
tp47
Rp48
(I1
(I2
tp49
g12
I00
S'\x95\xffT\xc3V\xdd\xcdB'
p50
tp51
bsS'ENOVA OFFSHORE PROJECTS'
p52
g2
(g3
(I0
tp53
g5
tp54
Rp55
(I1
(I2
tp56
g12
I00
S'wL\x88\xc2\xd9(]\xc2'
p57
tp58
bsS'JIAOZUO DANHE ELEC POWER GEN'
p59
g2
(g3
(I0
tp60
g5
tp61
Rp62
(I1
(I2
tp63
g12
I00
S'\x19\xc1!C\xf4*.C'
p64
tp65
bsS'ZE PAK SA'
p66
g2
(g3
(I0
tp67
g5
tp68
Rp69
(I1
(I2
tp70
g12
I00
S"'v\xa5\xc2I=\rC"
p71
tp72
bsS'RIVERBANK POWER CO'
p73
g2
(g3
(I0
tp74
g5
tp75
Rp76
(I1
(I2
tp77
g12
I00
S'q\x03[\xc3u\x1d\xb6B'
p78
tp79
bsS'ENDESA COSTANERA SA'
p80
g2
(g3
(I0
tp81
g5
tp82
Rp83
(I1
(I2
tp84
g12
I00
S'\xfd\x8b\xb6\xc2\xc5ut\xc3'
p85
tp86
bsS'FIRST HYDRO CO'
p87
g2
(g3
(I0
tp88
g5
tp89
Rp90
(I1
(I2
tp91
g12
I00
S'2\xe9\xff\xc1\xff[\x81\xc2'
p92
tp93
bsS'PT PLN IPP'
p94
g2
(g3
(I0
tp95
g5
tp96
Rp97
(I1
(I2
tp98
g12
I00
S'tQSB-\xd7\x00\xc3'
p99
tp100
bsS'FIRST SOLAR INC'
p101
g2
(g3
(I0
tp102
g5
tp103
Rp104
(I1
(I2
tp105
g12
I00
S'L\x87:\xc3:o\xd7B'
p106
tp107
bsS'ORIGIN ENERGY LTD'
p108
g2
(g3
(I0
tp109
g5
tp110
Rp111
(I1
(I2
tp112
g12
I00
S'\xd7\x0c\x02C\xadr>\xc3'
p113
tp114
bsS'JIANGSU ELECTRIC POWER CORP'
p115
g2
(g3
(I0
tp116
g5
tp117
Rp118
(I1
(I2
tp119
g12
I00
S'\xbbU\x15CI\xa1"C'
p120
tp121
bsS'FIRST WIND HOLDINGS LLC'
p122
g2
(g3
(I0
tp123
g5
tp124
Rp125
(I1
(I2
tp126
g12
I00
S'\xacIM\xc3\xcf\x0c\x83B'
p127
tp128
bsS'KANSAI ELECTRIC POWER CO'
p129
g2
(g3
(I0
tp130
g5
tp131
Rp132
(I1
(I2
tp133
g12
I00
S'\x85\x0b\x90C-v2\xc2'
p134
tp135
bsS'MASS GROUP HOLDING LTD'
p136
g2
(g3
(I0
tp137
g5
tp138
Rp139
(I1
(I2
tp140
g12
I00
S'W\xc0\xd9\xc1\xdaJ\x86\xc2'
p141
tp142
bsS'JP ELEKTROPRIVREDA BIH (EPBIH)'
p143
g2
(g3
(I0
tp144
g5
tp145
Rp146
(I1
(I2
tp147
g12
I00
S'w4EC\xbc\x05\xe9\xc1'
p148
tp149
bsS'CALIK ENERJI SANAYI VE TICARET'
p150
g2
(g3
(I0
tp151
g5
tp152
Rp153
(I1
(I2
tp154
g12
I00
S'\x06v\x8d\xc2t\xee&\xc2'
p155
tp156
bsS'NATIONAL POWER CORP (NPC)'
p157
g2
(g3
(I0
tp158
g5
tp159
Rp160
(I1
(I2
tp161
g12
I00
S'\x7f\xa1\xd7B\x96[\x8eB'
p162
tp163
bsS'FRED OLSEN RENEWABLES LTD'
p164
g2
(g3
(I0
tp165
g5
tp166
Rp167
(I1
(I2
tp168
g12
I00
S'\xb2\x92\xdf\xc1\xf4b\x1bB'
p169
tp170
bsS'TN'
p171
g2
(g3
(I0
tp172
g5
tp173
Rp174
(I1
(I2
tp175
g12
I00
S'\x99\x99\x18A4\x8c\x07B'
p176
tp177
bsS'NATIONAL GRID GENERATION LLC'
p178
g2
(g3
(I0
tp179
g5
tp180
Rp181
(I1
(I2
tp182
g12
I00
S'W\x81?\xc3\xf7O\x90B'
p183
tp184
bsS'MEIYA POWER CO'
p185
g2
(g3
(I0
tp186
g5
tp187
Rp188
(I1
(I2
tp189
g12
I00
S'M\xff1C\xadK\rC'
p190
tp191
bsS'HUADIAN FUXIN ENERGY CORP LTD'
p192
g2
(g3
(I0
tp193
g5
tp194
Rp195
(I1
(I2
tp196
g12
I00
S'\xff\xd5\xecB\x88m\x1cC'
p197
tp198
bsS'PACIFIC GAS AND ELECTRIC CO'
p199
g2
(g3
(I0
tp200
g5
tp201
Rp202
(I1
(I2
tp203
g12
I00
S'\x07\xf78\xc3\xea\xce\xbdB'
p204
tp205
bsS'ELETROBRAS SA'
p206
g2
(g3
(I0
tp207
g5
tp208
Rp209
(I1
(I2
tp210
g12
I00
S'G\x9e\x01\xc3\x17\\\xc9\xc2'
p211
tp212
bsS'ESSENTIAL POWER LLC'
p213
g2
(g3
(I0
tp214
g5
tp215
Rp216
(I1
(I2
tp217
g12
I00
S'\xcc\x01S\xc3V\x89\x88B'
p218
tp219
bsS'NRG ENERGY SERVICES'
p220
g2
(g3
(I0
tp221
g5
tp222
Rp223
(I1
(I2
tp224
g12
I00
S'\x02 \\\xc3\xf5P\x9bB'
p225
tp226
bsS'ZHEJIANG PROV ENERGY GROUP CO'
p227
g2
(g3
(I0
tp228
g5
tp229
Rp230
(I1
(I2
tp231
g12
I00
S'g\xfb\nC\xd7s\x03C'
p232
tp233
bsS'POHJOLAN VOIMA OY (PVO)'
p234
g2
(g3
(I0
tp235
g5
tp236
Rp237
(I1
(I2
tp238
g12
I00
S'\xfd\x1dF\xc2  \x87C'
p239
tp240
bsS'CHALCO MMC'
p241
g2
(g3
(I0
tp242
g5
tp243
Rp244
(I1
(I2
tp245
g12
I00
S'\xbb#\xb6B\x96\x14\xf3B'
p246
tp247
bsS'GT'
p248
g2
(g3
(I0
tp249
g5
tp250
Rp251
(I1
(I2
tp252
g12
I00
S'&v\xb4\xc2\x19\x89|A'
p253
tp254
bsS'ENERGIEWERKE NORD GMBH'
p255
g2
(g3
(I0
tp256
g5
tp257
Rp258
(I1
(I2
tp259
g12
I00
S'\xfa\xa2\xa3\xc2}\x7fM\xc2'
p260
tp261
bsS'HUBEI XISHUI NUCLEAR POWER CO'
p262
g2
(g3
(I0
tp263
g5
tp264
Rp265
(I1
(I2
tp266
g12
I00
S'\x8b\xe2\x10C&j"C'
p267
tp268
bsS'TRI-STATE G&T ASSOCIATION'
p269
g2
(g3
(I0
tp270
g5
tp271
Rp272
(I1
(I2
tp273
g12
I00
S'\xad6J\xc3\xfc\x12\x80B'
p274
tp275
bsS'WIEN ENERGIE GMBH'
p276
g2
(g3
(I0
tp277
g5
tp278
Rp279
(I1
(I2
tp280
g12
I00
S'\xfe\x807C\x0b\xe0\x99\xc2'
p281
tp282
bsS"SOC NATL D'ELEC - CDR (SNEL)"
p283
g2
(g3
(I0
tp284
g5
tp285
Rp286
(I1
(I2
tp287
g12
I00
S'\xe7\x98 \xc3\x00\xd5\t\xc3'
p288
tp289
bsS'ATLANTIC POWER CORP'
p290
g2
(g3
(I0
tp291
g5
tp292
Rp293
(I1
(I2
tp294
g12
I00
S'\xee\x0b_\xc3\xc0\x17\x8dB'
p295
tp296
bsS'CHINA RESOURCES NEW ENERGY GRP'
p297
g2
(g3
(I0
tp298
g5
tp299
Rp300
(I1
(I2
tp301
g12
I00
S'\xfb\x81\x0eC:\xf2(C'
p302
tp303
bsS'AES HUNGARY'
p304
g2
(g3
(I0
tp305
g5
tp306
Rp307
(I1
(I2
tp308
g12
I00
S"`xh\xc2\x9c\xc1'C"
p309
tp310
bsS'WEST DELTA ELEC PRODUCTION CO'
p311
g2
(g3
(I0
tp312
g5
tp313
Rp314
(I1
(I2
tp315
g12
I00
S"'\x85\xd3Ak\xb4B\xc3"
p316
tp317
bsS'NO INDIANA PUBLIC SERVICE CO'
p318
g2
(g3
(I0
tp319
g5
tp320
Rp321
(I1
(I2
tp322
g12
I00
S'}\x8a6\xc3\xbe\xf9\xc2B'
p323
tp324
bsS'EGYPT IPP PROJECTS'
p325
g2
(g3
(I0
tp326
g5
tp327
Rp328
(I1
(I2
tp329
g12
I00
S'\xa4\xdd\x81A\xa6\nC\xc3'
p330
tp331
bsS'DUBAI ELEC & WATER AUTH (DEWA)'
p332
g2
(g3
(I0
tp333
g5
tp334
Rp335
(I1
(I2
tp336
g12
I00
S'\x91\xb0\x1dC\rF!\xc3'
p337
tp338
bsS'GLOW GROUP'
p339
g2
(g3
(I0
tp340
g5
tp341
Rp342
(I1
(I2
tp343
g12
I00
S'\xb3\x0c\x86C\x88\x1f\x12\xc3'
p344
tp345
bsS'HIDROELEKTRANE DJERDAP DOO'
p346
g2
(g3
(I0
tp347
g5
tp348
Rp349
(I1
(I2
tp350
g12
I00
S'\xcb\x0b\x11C<\xe4\x81C'
p351
tp352
bsS'SCHLUCHSEEWERK AG'
p353
g2
(g3
(I0
tp354
g5
tp355
Rp356
(I1
(I2
tp357
g12
I00
S'\xed(\xae\xc2\xf3\xf0=\xc2'
p358
tp359
bsS'CESB-CCONSORCIO ENERGIA SUSTEN'
p360
g2
(g3
(I0
tp361
g5
tp362
Rp363
(I1
(I2
tp364
g12
I00
S'vX\x06\xc3\x0ef\xff\xc2'
p365
tp366
bsS'AD ELEM - MACEDONIAN POW PLTS'
p367
g2
(g3
(I0
tp368
g5
tp369
Rp370
(I1
(I2
tp371
g12
I00
S'4\xd1\x96\xc2\xf2-zC'
p372
tp373
bsS'YUNNAN HUADIAN NUJIANG HYDRO'
p374
g2
(g3
(I0
tp375
g5
tp376
Rp377
(I1
(I2
tp378
g12
I00
S"\xb5\x93\nC\x1b\xb4'C"
p379
tp380
bsS'JIAXING POWER GEN CO LTD'
p381
g2
(g3
(I0
tp382
g5
tp383
Rp384
(I1
(I2
tp385
g12
I00
S"\x973\tC'A$C"
p386
tp387
bsS'GH'
p388
g2
(g3
(I0
tp389
g5
tp390
Rp391
(I1
(I2
tp392
g12
I00
S'\x05\xf8\x82\xbf\xf3I\xfe@'
p393
tp394
bsS'ENIPOWER SPA'
p395
g2
(g3
(I0
tp396
g5
tp397
Rp398
(I1
(I2
tp399
g12
I00
S'h\xed"\xc1\x05\xad\xd4\xc2'
p400
tp401
bsS'GVK INDUSTRIES LTD'
p402
g2
(g3
(I0
tp403
g5
tp404
Rp405
(I1
(I2
tp406
g12
I00
S'\xd9\xc9\x05C\xe85\x97\xc2'
p407
tp408
bsS'IBERDROLA RENOVABLES'
p409
g2
(g3
(I0
tp410
g5
tp411
Rp412
(I1
(I2
tp413
g12
I00
S'\xe9\xb5Y\xc2"\xa1\x0eB'
p414
tp415
bsS'CONSUMERS ENERGY CO (MI)'
p416
g2
(g3
(I0
tp417
g5
tp418
Rp419
(I1
(I2
tp420
g12
I00
S'Y\xf79\xc3\xd2\x19\x96B'
p421
tp422
bsS'COMEGO SA DE CV'
p423
g2
(g3
(I0
tp424
g5
tp425
Rp426
(I1
(I2
tp427
g12
I00
S'>\xb3\x06\xc3x\xa21C'
p428
tp429
bsS'KOREA EAST-WEST POWER CO'
p430
g2
(g3
(I0
tp431
g5
tp432
Rp433
(I1
(I2
tp434
g12
I00
S'S\xa2\x98C\xbc\xe0\xd2B'
p435
tp436
bsS'DATONG COAL MINE GROUP CO LTD'
p437
g2
(g3
(I0
tp438
g5
tp439
Rp440
(I1
(I2
tp441
g12
I00
S'\x87\xba\x07Cg\x92 C'
p442
tp443
bsS'POWER ASSETS HOLDINGS LTD'
p444
g2
(g3
(I0
tp445
g5
tp446
Rp447
(I1
(I2
tp448
g12
I00
S'[[\x12C\xe3\x1c\x03C'
p449
tp450
bsS'DUKE ENERGY GERAC PARANAPANEMA'
p451
g2
(g3
(I0
tp452
g5
tp453
Rp454
(I1
(I2
tp455
g12
I00
S'\\\x0c\x1a\xc3\x84\xa9\xda\xc2'
p456
tp457
bsS'RAVEN POWER'
p458
g2
(g3
(I0
tp459
g5
tp460
Rp461
(I1
(I2
tp462
g12
I00
S'q"V\xc31\x83\xc7B'
p463
tp464
bsS'JO'
p465
g2
(g3
(I0
tp466
g5
tp467
Rp468
(I1
(I2
tp469
g12
I00
S'#\xf4\x10Bj\xae\xf4A'
p470
tp471
bsS'HEBEI HUADIAN SHIJIAZHUANG TPC'
p472
g2
(g3
(I0
tp473
g5
tp474
Rp475
(I1
(I2
tp476
g12
I00
S'\xf8\x84\x11C\xc8\xc2&C'
p477
tp478
bsS'WENERGY-ANHUI PROV ENERGY'
p479
g2
(g3
(I0
tp480
g5
tp481
Rp482
(I1
(I2
tp483
g12
I00
S'M\xc6\x0cC\xe8p\x18C'
p484
tp485
bsS'AUSTIN ENERGY'
p486
g2
(g3
(I0
tp487
g5
tp488
Rp489
(I1
(I2
tp490
g12
I00
S'\xa3\x07L\xc3%9\xddB'
p491
tp492
bsS'ENEL SPA'
p493
g2
(g3
(I0
tp494
g5
tp495
Rp496
(I1
(I2
tp497
g12
I00
S']\x91\xc6\xc1*\x9f\xa4\xc2'
p498
tp499
bsS'DB POWER LTD'
p500
g2
(g3
(I0
tp501
g5
tp502
Rp503
(I1
(I2
tp504
g12
I00
S'\xfd\xa6\x1fC.\xf8v\xc2'
p505
tp506
bsS'NORSK HYDRO ASA'
p507
g2
(g3
(I0
tp508
g5
tp509
Rp510
(I1
(I2
tp511
g12
I00
S'\xc4D\x01\xc2C\xc7\xe7@'
p512
tp513
bsS'WE ENERGIES'
p514
g2
(g3
(I0
tp515
g5
tp516
Rp517
(I1
(I2
tp518
g12
I00
S'W\x0e7\xc3b\xf7\xc9B'
p519
tp520
bsS'CHATTISGARH STATE POWER GEN'
p521
g2
(g3
(I0
tp522
g5
tp523
Rp524
(I1
(I2
tp525
g12
I00
S'\xfat\x1dC\xd4\x8dC\xc2'
p526
tp527
bsS'ELETROBRAS FURNAS'
p528
g2
(g3
(I0
tp529
g5
tp530
Rp531
(I1
(I2
tp532
g12
I00
S'\xcb&\xfa\xc2\x93R\xd3\xc2'
p533
tp534
bsS'NUGENERATION LTD'
p535
g2
(g3
(I0
tp536
g5
tp537
Rp538
(I1
(I2
tp539
g12
I00
S'\t\x1a\x90\xc1\x9f\xe0^\xc2'
p540
tp541
bsS'MIDAMERICAN ENERGY CO'
p542
g2
(g3
(I0
tp543
g5
tp544
Rp545
(I1
(I2
tp546
g12
I00
S'F\x17K\xc3\x9a|\xa2B'
p547
tp548
bsS'SHENZHEN ENERGY GROUP CO LTD'
p549
g2
(g3
(I0
tp550
g5
tp551
Rp552
(I1
(I2
tp553
g12
I00
S'\x80\xb9\x03C\xfd\xd0\x1cC'
p554
tp555
bsS'TAQA NORTH AFRICA'
p556
g2
(g3
(I0
tp557
g5
tp558
Rp559
(I1
(I2
tp560
g12
I00
S'5!JC2\xb6\x85\xc2'
p561
tp562
bsS'GUANGDONG ELEC POWER DEV CO'
p563
g2
(g3
(I0
tp564
g5
tp565
Rp566
(I1
(I2
tp567
g12
I00
S'\xb6\x07\x08C\xfc\xd2\x04C'
p568
tp569
bsS'ENEL GREEN POWER SPA'
p570
g2
(g3
(I0
tp571
g5
tp572
Rp573
(I1
(I2
tp574
g12
I00
S'\x16\xae\x01\xc2\xa8|\xd0\xc2'
p575
tp576
bsS'CHINA DATANG OVERSEAS INVEST'
p577
g2
(g3
(I0
tp578
g5
tp579
Rp580
(I1
(I2
tp581
g12
I00
S'\x83X9Cd\xfd\xaaB'
p582
tp583
bsS'SDIC HUAJING POWER HOLDINGS CO'
p584
g2
(g3
(I0
tp585
g5
tp586
Rp587
(I1
(I2
tp588
g12
I00
S'\xcd\xd9\x04C\xc7\xf2\x04C'
p589
tp590
bsS'LANCO GROUP'
p591
g2
(g3
(I0
tp592
g5
tp593
Rp594
(I1
(I2
tp595
g12
I00
S'\xe5Q\x11C\x1e\x89&\xc2'
p596
tp597
bsS'DIRECT ENERGIE'
p598
g2
(g3
(I0
tp599
g5
tp600
Rp601
(I1
(I2
tp602
g12
I00
S'\x99\xfb\xba\xc2\x1b_\xb5B'
p603
tp604
bsS'POWER HOLDING CO OF NIGERIA'
p605
g2
(g3
(I0
tp606
g5
tp607
Rp608
(I1
(I2
tp609
g12
I00
S'\xb6\xfa\xa0\xc2\xc2\xb3\x18\xc3'
p610
tp611
bsS'MINISTRY OF ELECTRICITY (IQ)'
p612
g2
(g3
(I0
tp613
g5
tp614
Rp615
(I1
(I2
tp616
g12
I00
S'd\xb5\x96\xc0\xd1\xce\x08\xc3'
p617
tp618
bsS'EESTI ENERGIA SA'
p619
g2
(g3
(I0
tp620
g5
tp621
Rp622
(I1
(I2
tp623
g12
I00
S'\x10\x9c6\xc1\xceA\x8cC'
p624
tp625
bsS'PUBLIC SERVICE CO OF OKLAHOMA'
p626
g2
(g3
(I0
tp627
g5
tp628
Rp629
(I1
(I2
tp630
g12
I00
S'9r<\xc3\xa4\xa8\x90B'
p631
tp632
bsS'EUAS - ELEKTRIK URETIM AS'
p633
g2
(g3
(I0
tp634
g5
tp635
Rp636
(I1
(I2
tp637
g12
I00
S'\xf2H\xc5\xc2\xd9`B\xc2'
p638
tp639
bsS'HEBEI CONSTR ENERGY INVEST CO'
p640
g2
(g3
(I0
tp641
g5
tp642
Rp643
(I1
(I2
tp644
g12
I00
S'&\x0f\x03C}\x83\x07C'
p645
tp646
bsS'HUANENG SHANDONG POWER CO LTD'
p647
g2
(g3
(I0
tp648
g5
tp649
Rp650
(I1
(I2
tp651
g12
I00
S'\x17/\xf3B\x8fx\x17C'
p652
tp653
bsS'ELECTRICITE DE LIBAN'
p654
g2
(g3
(I0
tp655
g5
tp656
Rp657
(I1
(I2
tp658
g12
I00
S'5o\x80C\xcbV\x03C'
p659
tp660
bsS'GDF SUEZ ENERGIA POLSKA SA'
p661
g2
(g3
(I0
tp662
g5
tp663
Rp664
(I1
(I2
tp665
g12
I00
S'`\x8e\x9c\xc2\xdc\x1b\tC'
p666
tp667
bsS'CEZ AS'
p668
g2
(g3
(I0
tp669
g5
tp670
Rp671
(I1
(I2
tp672
g12
I00
S'\x13\xde\x1e\xc2e0\n\xc3'
p673
tp674
bsS'HUANENG SHAANXI POWER CO LTD'
p675
g2
(g3
(I0
tp676
g5
tp677
Rp678
(I1
(I2
tp679
g12
I00
S'\x93{\xf6B\x03\xf3#C'
p680
tp681
bsS'UPPER EGYPT ELEC PRODUCTION CO'
p682
g2
(g3
(I0
tp683
g5
tp684
Rp685
(I1
(I2
tp686
g12
I00
S'qq\x13B\x88\xddB\xc3'
p687
tp688
bsS'SACRAMENTO MUNI UTILITY DIST'
p689
g2
(g3
(I0
tp690
g5
tp691
Rp692
(I1
(I2
tp693
g12
I00
S'\xd6\xf8=\xc3\xf2R\xddB'
p694
tp695
bsS'HUADIAN CHANGJI EGEMA C&P'
p696
g2
(g3
(I0
tp697
g5
tp698
Rp699
(I1
(I2
tp700
g12
I00
S'\\\xea)Co\x1a&C'
p701
tp702
bsS'EAST AZARBAYJAN POWER GEN MGMT'
p703
g2
(g3
(I0
tp704
g5
tp705
Rp706
(I1
(I2
tp707
g12
I00
S'=\xce\xebA\xd9\x83xC'
p708
tp709
bsS'AKSA ENERJI URETIM AS'
p710
g2
(g3
(I0
tp711
g5
tp712
Rp713
(I1
(I2
tp714
g12
I00
S'\x90{w\xc2\x03U\xa4\xc2'
p715
tp716
bsS'RWE POWER AG'
p717
g2
(g3
(I0
tp718
g5
tp719
Rp720
(I1
(I2
tp721
g12
I00
S'\x81/\xbb\xc2\xaeu\xb6\xc1'
p722
tp723
bsS'AMATA B GRIMM POWER'
p724
g2
(g3
(I0
tp725
g5
tp726
Rp727
(I1
(I2
tp728
g12
I00
S'\xd5D\x8fC\x1d*\xed\xc2'
p729
tp730
bsS'STATE GRID CORP FENGMAN HYDROP'
p731
g2
(g3
(I0
tp732
g5
tp733
Rp734
(I1
(I2
tp735
g12
I00
S'qx\x0fCcC2C'
p736
tp737
bsS'ZA'
p738
g2
(g3
(I0
tp739
g5
tp740
Rp741
(I1
(I2
tp742
g12
I00
S'\x03\x80\xb7A\xd2y\xf4\xc1'
p743
tp744
bsS'EDF LUMINUS'
p745
g2
(g3
(I0
tp746
g5
tp747
Rp748
(I1
(I2
tp749
g12
I00
S'\x8de\xe8A\x0c\x18\xd7\xc2'
p750
tp751
bsS'NEXTERA ENERGY RESOURCES LLC'
p752
g2
(g3
(I0
tp753
g5
tp754
Rp755
(I1
(I2
tp756
g12
I00
S'WGD\xc3\x19\xf1\xa6B'
p757
tp758
bsS'CME ENERGY LLC'
p759
g2
(g3
(I0
tp760
g5
tp761
Rp762
(I1
(I2
tp763
g12
I00
S'\xbaVV\xc3\x1f\xdd\xdfB'
p764
tp765
bsS'FIRST GEN CORP'
p766
g2
(g3
(I0
tp767
g5
tp768
Rp769
(I1
(I2
tp770
g12
I00
S'L\xa0\xfeBb|\x84B'
p771
tp772
bsS'TIANSHENGQIAO HYDROPOWER DEV'
p773
g2
(g3
(I0
tp774
g5
tp775
Rp776
(I1
(I2
tp777
g12
I00
S'\xe7\x0c\x10C\xda\xb5,C'
p778
tp779
bsS'UAB VISAGINO ATOMINE ELEK'
p780
g2
(g3
(I0
tp781
g5
tp782
Rp783
(I1
(I2
tp784
g12
I00
S'M\x1biC\x15\x9f C'
p785
tp786
bsS'ZW'
p787
g2
(g3
(I0
tp788
g5
tp789
Rp790
(I1
(I2
tp791
g12
I00
S'&=\xe9A\x9e\x1f\x98\xc1'
p792
tp793
bsS'NORTHEAST CHINA ELEC POWER'
p794
g2
(g3
(I0
tp795
g5
tp796
Rp797
(I1
(I2
tp798
g12
I00
S'!\x89\x16CP\xaf\x18C'
p799
tp800
bsS'ME'
p801
g2
(g3
(I0
tp802
g5
tp803
Rp804
(I1
(I2
tp805
g12
I00
S'\xc0\xfe\x9aA\xb0\xd5*B'
p806
tp807
bsS'MD'
p808
g2
(g3
(I0
tp809
g5
tp810
Rp811
(I1
(I2
tp812
g12
I00
S'\x86\xf5\xe2A\x83\xa5=B'
p813
tp814
bsS'PNG ENERGY DEV LTD (PNG EDL)'
p815
g2
(g3
(I0
tp816
g5
tp817
Rp818
(I1
(I2
tp819
g12
I00
S'\xd2\x0b\x1dCY\x91g\xc3'
p820
tp821
bsS'MA'
p822
g2
(g3
(I0
tp823
g5
tp824
Rp825
(I1
(I2
tp826
g12
I00
S'\xbe\xf6\xe2\xc0hU\xfeA'
p827
tp828
bsS'PGE ZESPOL ELEK DOLNA ODRA SA'
p829
g2
(g3
(I0
tp830
g5
tp831
Rp832
(I1
(I2
tp833
g12
I00
S'\xda\xa9\xaf\xc2Gt*C'
p834
tp835
bsS'MM'
p836
g2
(g3
(I0
tp837
g5
tp838
Rp839
(I1
(I2
tp840
g12
I00
S'\x96\xe9\xbfB\xcdO\xafA'
p841
tp842
bsS'SUEZ-TRACTEBEL O&M OMAN LLC'
p843
g2
(g3
(I0
tp844
g5
tp845
Rp846
(I1
(I2
tp847
g12
I00
S'\xd1\xa2"B\x03\x80,\xc3'
p848
tp849
bsS'CPI HENAN ELECTRIC POWER CO'
p850
g2
(g3
(I0
tp851
g5
tp852
Rp853
(I1
(I2
tp854
g12
I00
S'\x1a\xff\xeeB\x8c\xd3"C'
p855
tp856
bsS'MK'
p857
g2
(g3
(I0
tp858
g5
tp859
Rp860
(I1
(I2
tp861
g12
I00
S'S\xf6\xadA>o&B'
p862
tp863
bsS'JSC GENERATION CO'
p864
g2
(g3
(I0
tp865
g5
tp866
Rp867
(I1
(I2
tp868
g12
I00
S'\x06\xeffC\xfe\x1a\x13B'
p869
tp870
bsS'AZERENERJI OJSC'
p871
g2
(g3
(I0
tp872
g5
tp873
Rp874
(I1
(I2
tp875
g12
I00
S'\xd4\xe7\x02A\xda\xd3vC'
p876
tp877
bsS'MQ'
p878
g2
(g3
(I0
tp879
g5
tp880
Rp881
(I1
(I2
tp882
g12
I00
S'\xc1\x18t\xc2\xb3CjA'
p883
tp884
bsS'NV ENERGY - SIERRA PACIFIC'
p885
g2
(g3
(I0
tp886
g5
tp887
Rp888
(I1
(I2
tp889
g12
I00
S'M\xbfD\xc3R3\x83B'
p890
tp891
bsS'PGE GORNICTWO I ENERGETYKA SA'
p892
g2
(g3
(I0
tp893
g5
tp894
Rp895
(I1
(I2
tp896
g12
I00
S'z\xae\xad\xc2\xabL\tC'
p897
tp898
bsS'MY'
p899
g2
(g3
(I0
tp900
g5
tp901
Rp902
(I1
(I2
tp903
g12
I00
S'\x98\xf3\xcbBI\xbc\x86@'
p904
tp905
bsS'DTEK VOSTOKENERGO'
p906
g2
(g3
(I0
tp907
g5
tp908
Rp909
(I1
(I2
tp910
g12
I00
S'i\nmC\xc8\xb9J\xc0'
p911
tp912
bsS'GB'
p913
g2
(g3
(I0
tp914
g5
tp915
Rp916
(I1
(I2
tp917
g12
I00
S'\xfb\xe6[\xc0 \x83]B'
p918
tp919
bsS'SALINE WATER CONVERSION CORP'
p920
g2
(g3
(I0
tp921
g5
tp922
Rp923
(I1
(I2
tp924
g12
I00
S'\x88\xb9SCq\xea\x9eB'
p925
tp926
bsS'SOC TUNISIENNE ELEC GAZ (STEG)'
p927
g2
(g3
(I0
tp928
g5
tp929
Rp930
(I1
(I2
tp931
g12
I00
S'r#B\xc2\xd4lnC'
p932
tp933
bsS'DAYA BAY NUCLEAR POWER O&M CO'
p934
g2
(g3
(I0
tp935
g5
tp936
Rp937
(I1
(I2
tp938
g12
I00
S'P\x18\x05C|v$C'
p939
tp940
bsS'FR'
p941
g2
(g3
(I0
tp942
g5
tp943
Rp944
(I1
(I2
tp945
g12
I00
S'\x10\xae\r@\x1a\xe98B'
p946
tp947
bsS'E.ON FRANCE SAS'
p948
g2
(g3
(I0
tp949
g5
tp950
Rp951
(I1
(I2
tp952
g12
I00
S'\xd2\xeb\xe6\xc2\x04!\x0fB'
p953
tp954
bsS'SCOTTISHPOWER PLC'
p955
g2
(g3
(I0
tp956
g5
tp957
Rp958
(I1
(I2
tp959
g12
I00
S'\xaeB\xe7\xc1\xa0\xcc\x10\xc2'
p960
tp961
bsS'PGE ELEKTROWNIA TUROW SA'
p962
g2
(g3
(I0
tp963
g5
tp964
Rp965
(I1
(I2
tp966
g12
I00
S';\xaf\xae\xc2\x17\x8b\x16C'
p967
tp968
bsS'NEWFOUNDLAND & LABRADOR HYDRO'
p969
g2
(g3
(I0
tp970
g5
tp971
Rp972
(I1
(I2
tp973
g12
I00
S'YH\x90\xc3F\xfa\xc5B'
p974
tp975
bsS'TUCSON ELECTRIC POWER CO'
p976
g2
(g3
(I0
tp977
g5
tp978
Rp979
(I1
(I2
tp980
g12
I00
S'3\x84d\xc3K\xd9\xc4B'
p981
tp982
bsS'EGYPTIAN ELEC HOLDING CO'
p983
g2
(g3
(I0
tp984
g5
tp985
Rp986
(I1
(I2
tp987
g12
I00
S'u\x0c\xda@6\x84F\xc3'
p988
tp989
bsS'SASKPOWER'
p990
g2
(g3
(I0
tp991
g5
tp992
Rp993
(I1
(I2
tp994
g12
I00
S'@\x86\x91\xc3h7\xa2B'
p995
tp996
bsS'YUNNAN HYDROPOWER DEV CO LTD'
p997
g2
(g3
(I0
tp998
g5
tp999
Rp1000
(I1
(I2
tp1001
g12
I00
S'O=\x19C4\xaf#C'
p1002
tp1003
bsS'SC ELECTROCENTRALE BUCURESTI'
p1004
g2
(g3
(I0
tp1005
g5
tp1006
Rp1007
(I1
(I2
tp1008
g12
I00
S's\xe8 \xc1\xed~TC'
p1009
tp1010
bsS'NORTHLAND POWER INC'
p1011
g2
(g3
(I0
tp1012
g5
tp1013
Rp1014
(I1
(I2
tp1015
g12
I00
S'*\x03h\xc3\xa3.\xaaB'
p1016
tp1017
bsS'ORLANDO UTILITIES COMM (FL)'
p1018
g2
(g3
(I0
tp1019
g5
tp1020
Rp1021
(I1
(I2
tp1022
g12
I00
S'Z\xe7I\xc3\xdc\x8b\xe7B'
p1023
tp1024
bsS'NUKLEARNA ELEKTRARNA KRSKO'
p1025
g2
(g3
(I0
tp1026
g5
tp1027
Rp1028
(I1
(I2
tp1029
g12
I00
S'w)4\xc3\xf36\xa3\xc2'
p1030
tp1031
bsS'CHINA GUODIAN CORP'
p1032
g2
(g3
(I0
tp1033
g5
tp1034
Rp1035
(I1
(I2
tp1036
g12
I00
S'\xc7s\xfeB\xe9\x15\x08C'
p1037
tp1038
bsS'LOUISVILLE GAS & ELECTRIC CO'
p1039
g2
(g3
(I0
tp1040
g5
tp1041
Rp1042
(I1
(I2
tp1043
g12
I00
S'C\xc9C\xc3iY\x99B'
p1044
tp1045
bsS'GUANGXI INVESTMENT GROUP CO'
p1046
g2
(g3
(I0
tp1047
g5
tp1048
Rp1049
(I1
(I2
tp1050
g12
I00
S'FI\rC\x9a_/C'
p1051
tp1052
bsS'CENTRAL ELEC GENERATING BOARD'
p1053
g2
(g3
(I0
tp1054
g5
tp1055
Rp1056
(I1
(I2
tp1057
g12
I00
S'\xe3\xe6\xbc\xc1\xec_&\xc2'
p1058
tp1059
bsS'IBERDROLA SA'
p1060
g2
(g3
(I0
tp1061
g5
tp1062
Rp1063
(I1
(I2
tp1064
g12
I00
S'\xf1C\xb4\xc2\xb8\xce\xecA'
p1065
tp1066
bsS'OHIO EDISON CO'
p1067
g2
(g3
(I0
tp1068
g5
tp1069
Rp1070
(I1
(I2
tp1071
g12
I00
S'\xb6\x11]\xc3\x87$\xc8B'
p1072
tp1073
bsS'DATANG SHAANXI POWER GEN CO'
p1074
g2
(g3
(I0
tp1075
g5
tp1076
Rp1077
(I1
(I2
tp1078
g12
I00
S'\x98j\x0fC\x9d_\x15C'
p1079
tp1080
bsS'HUADIAN YUNNAN POWER GEN CORP'
p1081
g2
(g3
(I0
tp1082
g5
tp1083
Rp1084
(I1
(I2
tp1085
g12
I00
S'w;\x16C\x91\xb3\x06C'
p1086
tp1087
bsS'POWER CORP OF KARNATAKA LTD'
p1088
g2
(g3
(I0
tp1089
g5
tp1090
Rp1091
(I1
(I2
tp1092
g12
I00
S'"\x8b\xeeB\xad\xcf\x8e\xc2'
p1093
tp1094
bsS'INDECK ENERGY SERVICES'
p1095
g2
(g3
(I0
tp1096
g5
tp1097
Rp1098
(I1
(I2
tp1099
g12
I00
S'J\xbf_\xc3S^\xa5B'
p1100
tp1101
bsS'MAHARASHTRA STATE POWER GEN CO'
p1102
g2
(g3
(I0
tp1103
g5
tp1104
Rp1105
(I1
(I2
tp1106
g12
I00
S'\x03\x9f\x00C\xd5\xd5J\xc2'
p1107
tp1108
bsS'CORPOELEC-EMP ELEC SOCIALISTA'
p1109
g2
(g3
(I0
tp1110
g5
tp1111
Rp1112
(I1
(I2
tp1113
g12
I00
S'\xe2R.B\x14>\x10\xc2'
p1114
tp1115
bsS'OLD DOMINION ELEC COOP'
p1116
g2
(g3
(I0
tp1117
g5
tp1118
Rp1119
(I1
(I2
tp1120
g12
I00
S'\xb9\x11I\xc3\xf8\xd6\xd8B'
p1121
tp1122
bsS'CONTACT ENERGY LTD'
p1123
g2
(g3
(I0
tp1124
g5
tp1125
Rp1126
(I1
(I2
tp1127
g12
I00
S'\xad\xfe\xb2Cd\xd8\x0b\xc3'
p1128
tp1129
bsS'DUKE ENERGY CAROLINAS LLC'
p1130
g2
(g3
(I0
tp1131
g5
tp1132
Rp1133
(I1
(I2
tp1134
g12
I00
S'>r6\xc3\x8f\xf8\xa4B'
p1135
tp1136
bsS'UKRHYDROENERGO PJSC'
p1137
g2
(g3
(I0
tp1138
g5
tp1139
Rp1140
(I1
(I2
tp1141
g12
I00
S'ND<C\xff\x01\xb3A'
p1142
tp1143
bsS'SOC ALGERIENNE PROD ELEC (SPE)'
p1144
g2
(g3
(I0
tp1145
g5
tp1146
Rp1147
(I1
(I2
tp1148
g12
I00
S'\xabS\r\xc3\x8d\x92\x0f\xc3'
p1149
tp1150
bsS'TGC-11 (TERRITORIAL GEN CO 11)'
p1151
g2
(g3
(I0
tp1152
g5
tp1153
Rp1154
(I1
(I2
tp1155
g12
I00
S'O\x0e\x91CN\x0bbB'
p1156
tp1157
bsS'AES ARGENTINA'
p1158
g2
(g3
(I0
tp1159
g5
tp1160
Rp1161
(I1
(I2
tp1162
g12
I00
S'\xa0p\x17\xc3\xd2%f\xc3'
p1163
tp1164
bsS'DATANG GANSU POWER GEN CO LTD'
p1165
g2
(g3
(I0
tp1166
g5
tp1167
Rp1168
(I1
(I2
tp1169
g12
I00
S'\x1eh\xeeB_\x97\x1fC'
p1170
tp1171
bsS'NORTHERN STATES POWER CO (MN)'
p1172
g2
(g3
(I0
tp1173
g5
tp1174
Rp1175
(I1
(I2
tp1176
g12
I00
S'\x17O6\xc3h\xda\xb9B'
p1177
tp1178
bsS'APPALACHIAN POWER CO'
p1179
g2
(g3
(I0
tp1180
g5
tp1181
Rp1182
(I1
(I2
tp1183
g12
I00
S'y\xa7M\xc32\x9d\xa7B'
p1184
tp1185
bsS'FOSHAN PUBLIC UTIL HOLDING CO'
p1186
g2
(g3
(I0
tp1187
g5
tp1188
Rp1189
(I1
(I2
tp1190
g12
I00
S'K\x05\x19CO\xe9-C'
p1191
tp1192
bsS'SWB AG'
p1193
g2
(g3
(I0
tp1194
g5
tp1195
Rp1196
(I1
(I2
tp1197
g12
I00
S'{\xb8\xb3\xc2"u$\xc2'
p1198
tp1199
bsS'CLP GROUP'
p1200
g2
(g3
(I0
tp1201
g5
tp1202
Rp1203
(I1
(I2
tp1204
g12
I00
S'\xf7\xa3\x1aC\xd0,\x11C'
p1205
tp1206
bsS'PETROBRAS'
p1207
g2
(g3
(I0
tp1208
g5
tp1209
Rp1210
(I1
(I2
tp1211
g12
I00
S'\xb0t\xfd\xc2\xc5\xd6\xfc\xc2'
p1212
tp1213
bsS'ZHEJIANG ZHENENG ELEC POW CO'
p1214
g2
(g3
(I0
tp1215
g5
tp1216
Rp1217
(I1
(I2
tp1218
g12
I00
S'\x1cy\xf3B\x11\xc8\x1bC'
p1219
tp1220
bsS'SOUTHERN POWER CO'
p1221
g2
(g3
(I0
tp1222
g5
tp1223
Rp1224
(I1
(I2
tp1225
g12
I00
S'\xc6\x8c5\xc3\xde\x8d\xb2B'
p1226
tp1227
bsS'VATTENFALL EUROPE AG'
p1228
g2
(g3
(I0
tp1229
g5
tp1230
Rp1231
(I1
(I2
tp1232
g12
I00
S'V@\xa4\xc29\x8a\xe7\xc1'
p1233
tp1234
bsS'GCL-POLY ENERGY HOLDINGS LTD'
p1235
g2
(g3
(I0
tp1236
g5
tp1237
Rp1238
(I1
(I2
tp1239
g12
I00
S' h\x1dC/\xff\x03C'
p1240
tp1241
bsS'ADM USINAS TRANS ELEC (UTE)'
p1242
g2
(g3
(I0
tp1243
g5
tp1244
Rp1245
(I1
(I2
tp1246
g12
I00
S'\xe3\xe0\xaa\xc2/U9C'
p1247
tp1248
bsS'YE'
p1249
g2
(g3
(I0
tp1250
g5
tp1251
Rp1252
(I1
(I2
tp1253
g12
I00
S'\xc8\x10BB\xf8\xd7xA'
p1254
tp1255
bsS'ENTERGY GULF STATES LOUISIANA'
p1256
g2
(g3
(I0
tp1257
g5
tp1258
Rp1259
(I1
(I2
tp1260
g12
I00
S'Z_:\xc3\x192\xcbB'
p1261
tp1262
bsS'SHENZHEN GENERAL POWER CORP'
p1263
g2
(g3
(I0
tp1264
g5
tp1265
Rp1266
(I1
(I2
tp1267
g12
I00
S'l.\x11C\x8c\xe1\x19C'
p1268
tp1269
bsS'CHINA GENERAL NUC POWER GROUP'
p1270
g2
(g3
(I0
tp1271
g5
tp1272
Rp1273
(I1
(I2
tp1274
g12
I00
S'\xc8\x98\xf4B\xad\xa0\x0eC'
p1275
tp1276
bsS'SINOP NGS'
p1277
g2
(g3
(I0
tp1278
g5
tp1279
Rp1280
(I1
(I2
tp1281
g12
I00
S'\xe5\xac\xd2\xc2\xd3!\x91\xc2'
p1282
tp1283
bsS'SMITH COGENERATION INTL INC'
p1284
g2
(g3
(I0
tp1285
g5
tp1286
Rp1287
(I1
(I2
tp1288
g12
I00
S'\xc0d6\xc1\x18\x7f\x9fB'
p1289
tp1290
bsS'SHANXI XINYOU GROUP CO LTD'
p1291
g2
(g3
(I0
tp1292
g5
tp1293
Rp1294
(I1
(I2
tp1295
g12
I00
S'/8\x13C\xa0\xcb*C'
p1296
tp1297
bsS'HUADIAN NEW ENERGY DEVELOPMENT'
p1298
g2
(g3
(I0
tp1299
g5
tp1300
Rp1301
(I1
(I2
tp1302
g12
I00
S'\x95\\\x19C\xa7(1C'
p1303
tp1304
bsS'KOREA SOUTHEAST POWER CO'
p1305
g2
(g3
(I0
tp1306
g5
tp1307
Rp1308
(I1
(I2
tp1309
g12
I00
S'\xa5\xcf\x93C\xbc\xe1\x01C'
p1310
tp1311
bsS'ADANI POWER LTD'
p1312
g2
(g3
(I0
tp1313
g5
tp1314
Rp1315
(I1
(I2
tp1316
g12
I00
S'\xe0\xbe\xe4Bj[h\xc2'
p1317
tp1318
bsS'SHANGHAI ELECTRIC POWER CO LTD'
p1319
g2
(g3
(I0
tp1320
g5
tp1321
Rp1322
(I1
(I2
tp1323
g12
I00
S'_\xa4\x13C\xca\xee\x15C'
p1324
tp1325
bsS'JAS INFRASTRUCTURE CAPITAL PVT'
p1326
g2
(g3
(I0
tp1327
g5
tp1328
Rp1329
(I1
(I2
tp1330
g12
I00
S'\x96\xd5\x10C\xbe\x8d\x95\xc2'
p1331
tp1332
bsS'TRIANEL GMBH'
p1333
g2
(g3
(I0
tp1334
g5
tp1335
Rp1336
(I1
(I2
tp1337
g12
I00
S'\xc7\xc6\xb4\xc2\x89(\x08\xc2'
p1338
tp1339
bsS'TATA POWER CO LTD'
p1340
g2
(g3
(I0
tp1341
g5
tp1342
Rp1343
(I1
(I2
tp1344
g12
I00
S',%\x08C\x86)(\xc2'
p1345
tp1346
bsS'SEMBCORP UTILITIES VIETNAM'
p1347
g2
(g3
(I0
tp1348
g5
tp1349
Rp1350
(I1
(I2
tp1351
g12
I00
S'\xc1RDCXN\xd7\xc2'
p1352
tp1353
bsS'INDIAN FARMERS FERTILISER COOP'
p1354
g2
(g3
(I0
tp1355
g5
tp1356
Rp1357
(I1
(I2
tp1358
g12
I00
S'\x9e)\x13C\x0b7U\xc2'
p1359
tp1360
bsS'ENTEGRA POWER GROUP LLC'
p1361
g2
(g3
(I0
tp1362
g5
tp1363
Rp1364
(I1
(I2
tp1365
g12
I00
S'\x10\xcfL\xc3i<\x8aB'
p1366
tp1367
bsS'EVER POWER IPP CO LTD'
p1368
g2
(g3
(I0
tp1369
g5
tp1370
Rp1371
(I1
(I2
tp1372
g12
I00
S'Z\t\xa6C\xf9\x9b4\xc2'
p1373
tp1374
bsS'SY'
p1375
g2
(g3
(I0
tp1376
g5
tp1377
Rp1378
(I1
(I2
tp1379
g12
I00
S'\xbd\xfc\x1bBS5\x0bB'
p1380
tp1381
bsS'ENTERGY MISSISSIPPI INC'
p1382
g2
(g3
(I0
tp1383
g5
tp1384
Rp1385
(I1
(I2
tp1386
g12
I00
S'\xab\\@\xc3\x820\xe1B'
p1387
tp1388
bsS'SS'
p1389
g2
(g3
(I0
tp1390
g5
tp1391
Rp1392
(I1
(I2
tp1393
g12
I00
S'\xdd\x88\xf2A\xbe&\xde@'
p1394
tp1395
bsS'UZ'
p1396
g2
(g3
(I0
tp1397
g5
tp1398
Rp1399
(I1
(I2
tp1400
g12
I00
S'\xa7+\x81B\x8d\x82%B'
p1401
tp1402
bsS'PSEG NUCLEAR LLC'
p1403
g2
(g3
(I0
tp1404
g5
tp1405
Rp1406
(I1
(I2
tp1407
g12
I00
S'\xce\x19X\xc3t\x96\xb2B'
p1408
tp1409
bsS'NV EPZ'
p1410
g2
(g3
(I0
tp1411
g5
tp1412
Rp1413
(I1
(I2
tp1414
g12
I00
S'H\xa9\xa5\xc2!\x9d\xfd\xc2'
p1415
tp1416
bsS'A2A SPA'
p1417
g2
(g3
(I0
tp1418
g5
tp1419
Rp1420
(I1
(I2
tp1421
g12
I00
S'\nL\x8d\xc1\xa0\xa9\xc4\xc2'
p1422
tp1423
bsS'SK'
p1424
g2
(g3
(I0
tp1425
g5
tp1426
Rp1427
(I1
(I2
tp1428
g12
I00
S'\x9a\x97\x9dA\x15\xadBB'
p1429
tp1430
bsS'RWE NPOWER'
p1431
g2
(g3
(I0
tp1432
g5
tp1433
Rp1434
(I1
(I2
tp1435
g12
I00
S'\xdc8\xa6\xc1\x86A\x00\xc2'
p1436
tp1437
bsS'SI'
p1438
g2
(g3
(I0
tp1439
g5
tp1440
Rp1441
(I1
(I2
tp1442
g12
I00
S'k\xedoA\xdf\x9a8B'
p1443
tp1444
bsS'JAPAN ATOMIC POWER CO (JAPC)'
p1445
g2
(g3
(I0
tp1446
g5
tp1447
Rp1448
(I1
(I2
tp1449
g12
I00
S'\x81M\x8eC\x94\xf4z\xc2'
p1450
tp1451
bsS'VIETNAM ATOMIC ENERGY COMM'
p1452
g2
(g3
(I0
tp1453
g5
tp1454
Rp1455
(I1
(I2
tp1456
g12
I00
S'E\x81\x82CD\x10\x9f\xc2'
p1457
tp1458
bsS'GMR GROUP'
p1459
g2
(g3
(I0
tp1460
g5
tp1461
Rp1462
(I1
(I2
tp1463
g12
I00
S'N\x17\x0eCrmS\xc2'
p1464
tp1465
bsS'FREE FLOW POWER CORP'
p1466
g2
(g3
(I0
tp1467
g5
tp1468
Rp1469
(I1
(I2
tp1470
g12
I00
S'\xd2DO\xc3\xca\xbc\xdfB'
p1471
tp1472
bsS'GRAND RIVER DAM AUTH'
p1473
g2
(g3
(I0
tp1474
g5
tp1475
Rp1476
(I1
(I2
tp1477
g12
I00
S'\x89\xeaY\xc3\xb7\x81\xdfB'
p1478
tp1479
bsS'SA'
p1480
g2
(g3
(I0
tp1481
g5
tp1482
Rp1483
(I1
(I2
tp1484
g12
I00
S'\x10Q4Bi\x16\xbfA'
p1485
tp1486
bsS'PT CENTRAL JAVA POWER'
p1487
g2
(g3
(I0
tp1488
g5
tp1489
Rp1490
(I1
(I2
tp1491
g12
I00
S'\x96i\x8cB\xce"\x02\xc3'
p1492
tp1493
bsS'SG'
p1494
g2
(g3
(I0
tp1495
g5
tp1496
Rp1497
(I1
(I2
tp1498
g12
I00
S'\xc2\xa3\xcfB\x0e\x11\xad?'
p1499
tp1500
bsS'MIDDLE DELTA ELEC PROD CO'
p1501
g2
(g3
(I0
tp1502
g5
tp1503
Rp1504
(I1
(I2
tp1505
g12
I00
S'\xf4\xb9\x9a@%*9\xc3'
p1506
tp1507
bsS'SE'
p1508
g2
(g3
(I0
tp1509
g5
tp1510
Rp1511
(I1
(I2
tp1512
g12
I00
S'\xe4%\x95A=\x83pB'
p1513
tp1514
bsS'SD'
p1515
g2
(g3
(I0
tp1516
g5
tp1517
Rp1518
(I1
(I2
tp1519
g12
I00
S'\xb8\xbd\xf1A\x0f\xceMA'
p1520
tp1521
bsS'NEOENERGIA SA'
p1522
g2
(g3
(I0
tp1523
g5
tp1524
Rp1525
(I1
(I2
tp1526
g12
I00
S'-n\x16\xc3\x87\x02\xfa\xc2'
p1527
tp1528
bsS'NV ENERGY - NEVADA POWER'
p1529
g2
(g3
(I0
tp1530
g5
tp1531
Rp1532
(I1
(I2
tp1533
g12
I00
S'g6=\xc3\xc8\xf2\x97B'
p1534
tp1535
bsS'CASTLE PEAK POWER CO (CAPCO)'
p1536
g2
(g3
(I0
tp1537
g5
tp1538
Rp1539
(I1
(I2
tp1540
g12
I00
S'\xfe\x10\x08C*\x10+C'
p1541
tp1542
bsS'TELANGANA POWER GEN CORP LTD'
p1543
g2
(g3
(I0
tp1544
g5
tp1545
Rp1546
(I1
(I2
tp1547
g12
I00
S'\x92d\x10C\xa9[?\xc2'
p1548
tp1549
bsS'SARAWAK ENERGY BHD GROUP'
p1550
g2
(g3
(I0
tp1551
g5
tp1552
Rp1553
(I1
(I2
tp1554
g12
I00
S'\x85\x0f\x94C\xe9n\xea\xbf'
p1555
tp1556
bsS'NAVASOTA WIND PARTNERS LP'
p1557
g2
(g3
(I0
tp1558
g5
tp1559
Rp1560
(I1
(I2
tp1561
g12
I00
S'O\x89G\xc3\x84\xc4\x81B'
p1562
tp1563
bsS'VINACOMIN-VIET COAL-MIN INDUST'
p1564
g2
(g3
(I0
tp1565
g5
tp1566
Rp1567
(I1
(I2
tp1568
g12
I00
S'^\nTCn\x1c\xd1\xc2'
p1569
tp1570
bsS'PECO ENERGY CO'
p1571
g2
(g3
(I0
tp1572
g5
tp1573
Rp1574
(I1
(I2
tp1575
g12
I00
S'J\xfeQ\xc3\xa8q\xe3B'
p1576
tp1577
bsS'HUAINAN HUAIZHE COAL & POWER'
p1578
g2
(g3
(I0
tp1579
g5
tp1580
Rp1581
(I1
(I2
tp1582
g12
I00
S'f\x13\x12C\xab\x080C'
p1583
tp1584
bsS'INDIANA MICHIGAN POWER CO'
p1585
g2
(g3
(I0
tp1586
g5
tp1587
Rp1588
(I1
(I2
tp1589
g12
I00
S'*W=\xc3\xb34\xd7B'
p1590
tp1591
bsS'JAIPRAKASH HYDRO-POWER LTD'
p1592
g2
(g3
(I0
tp1593
g5
tp1594
Rp1595
(I1
(I2
tp1596
g12
I00
S'\xd6\xa4\x16C\xc3\x19I\xc2'
p1597
tp1598
bsS'EAST KENTUCKY POWER COOP INC'
p1599
g2
(g3
(I0
tp1600
g5
tp1601
Rp1602
(I1
(I2
tp1603
g12
I00
S'&:C\xc3\xcb\xed\xe4B'
p1604
tp1605
bsS'NAES CORP'
p1606
g2
(g3
(I0
tp1607
g5
tp1608
Rp1609
(I1
(I2
tp1610
g12
I00
S'\xf2*O\xc3\xcf<\xe7B'
p1611
tp1612
bsS'UY'
p1613
g2
(g3
(I0
tp1614
g5
tp1615
Rp1616
(I1
(I2
tp1617
g12
I00
S'7\x10_\xc2S\x17\x02\xc2'
p1618
tp1619
bsS'MALAKOFF BHD'
p1620
g2
(g3
(I0
tp1621
g5
tp1622
Rp1623
(I1
(I2
tp1624
g12
I00
S'\x82Q\x96Cp\x85\x80A'
p1625
tp1626
bsS'MACBARON GROUP'
p1627
g2
(g3
(I0
tp1628
g5
tp1629
Rp1630
(I1
(I2
tp1631
g12
I00
S'\x19\xd9\xd7\xc2`\xb99\xc3'
p1632
tp1633
bsS'BEIJING JINGNENG CLEAN ENERGY'
p1634
g2
(g3
(I0
tp1635
g5
tp1636
Rp1637
(I1
(I2
tp1638
g12
I00
S'\x8a\xea\x15C\xa2\xd0\x02C'
p1639
tp1640
bsS'GR'
p1641
g2
(g3
(I0
tp1642
g5
tp1643
Rp1644
(I1
(I2
tp1645
g12
I00
S'1\x98\xaeA\xfdK\x1cB'
p1646
tp1647
bsS'NAVASOTA ENERGY LLC'
p1648
g2
(g3
(I0
tp1649
g5
tp1650
Rp1651
(I1
(I2
tp1652
g12
I00
S'\x11\x04M\xc3\xffP\xebB'
p1653
tp1654
bsS'PGNIG TERMIKA SA'
p1655
g2
(g3
(I0
tp1656
g5
tp1657
Rp1658
(I1
(I2
tp1659
g12
I00
S'?\x0c\xa2\xc2\xd0\x83$C'
p1660
tp1661
bsS'LA'
p1662
g2
(g3
(I0
tp1663
g5
tp1664
Rp1665
(I1
(I2
tp1666
g12
I00
S'\xb2\xfd\xccB\xa4\xd9\x9eA'
p1667
tp1668
bsS'HUBEI ENERGY GROUP CO LTD'
p1669
g2
(g3
(I0
tp1670
g5
tp1671
Rp1672
(I1
(I2
tp1673
g12
I00
S'\x0f\xd8\xf9B\xf7^\x1dC'
p1674
tp1675
bsS'LK'
p1676
g2
(g3
(I0
tp1677
g5
tp1678
Rp1679
(I1
(I2
tp1680
g12
I00
S')\x8b\xa1B\x0f\xf0\xfb@'
p1681
tp1682
bsS'CPI YUNNAN INTL POWER INVEST'
p1683
g2
(g3
(I0
tp1684
g5
tp1685
Rp1686
(I1
(I2
tp1687
g12
I00
S'r\x8d\x01C\x1eR:\xc1'
p1688
tp1689
bsS'PUBLIC SERVICE CO OF COLORADO'
p1690
g2
(g3
(I0
tp1691
g5
tp1692
Rp1693
(I1
(I2
tp1694
g12
I00
S'.l<\xc3\xdaG\xd0B'
p1695
tp1696
bsS'LT'
p1697
g2
(g3
(I0
tp1698
g5
tp1699
Rp1700
(I1
(I2
tp1701
g12
I00
S'\xda\x0c\xbfA\x81\xad\\B'
p1702
tp1703
bsS'CHINA THREE GORGES CORP'
p1704
g2
(g3
(I0
tp1705
g5
tp1706
Rp1707
(I1
(I2
tp1708
g12
I00
S"'T\x03C\xae\xf0\nC"
p1709
tp1710
bsS'DUKE ENERGY WHOLESALE PWR'
p1711
g2
(g3
(I0
tp1712
g5
tp1713
Rp1714
(I1
(I2
tp1715
g12
I00
S'\xe0\n9\xc3\x0cS\xa2B'
p1716
tp1717
bsS'COMP NATIONALE DU RHONE'
p1718
g2
(g3
(I0
tp1719
g5
tp1720
Rp1721
(I1
(I2
tp1722
g12
I00
S'v\xdf\xad\xc2\xaf\xb9\xc2B'
p1723
tp1724
bsS'UZBEKENERGO'
p1725
g2
(g3
(I0
tp1726
g5
tp1727
Rp1728
(I1
(I2
tp1729
g12
I00
S'L\x03\x85C4\xe1\xc9B'
p1730
tp1731
bsS'STATE GRID XINYUAN CO LTD'
p1732
g2
(g3
(I0
tp1733
g5
tp1734
Rp1735
(I1
(I2
tp1736
g12
I00
S'\x1b\xcb\xf8Bg\xbc\x11C'
p1737
tp1738
bsS'ISRAEL ELECTRIC CORP'
p1739
g2
(g3
(I0
tp1740
g5
tp1741
Rp1742
(I1
(I2
tp1743
g12
I00
S'N9\xc1Bx5mC'
p1744
tp1745
bsS'PEPCO'
p1746
g2
(g3
(I0
tp1747
g5
tp1748
Rp1749
(I1
(I2
tp1750
g12
I00
S'\x94x[\xc373\x93B'
p1751
tp1752
bsS'OAO BOGUCHANSKAYA GES'
p1753
g2
(g3
(I0
tp1754
g5
tp1755
Rp1756
(I1
(I2
tp1757
g12
I00
S'\xcfp\x90C\xe4\xdd\x8cB'
p1758
tp1759
bsS'SPARKLE ENERGY LTD'
p1760
g2
(g3
(I0
tp1761
g5
tp1762
Rp1763
(I1
(I2
tp1764
g12
I00
S'C\xa5\xb1\xc2\x0b\x1a$\xc3'
p1765
tp1766
bsS'DYNEGY POWER LLC'
p1767
g2
(g3
(I0
tp1768
g5
tp1769
Rp1770
(I1
(I2
tp1771
g12
I00
S'D\x866\xc32\x15\xacB'
p1772
tp1773
bsS'GUANGDONG ZHUJIANG INVESTMENT'
p1774
g2
(g3
(I0
tp1775
g5
tp1776
Rp1777
(I1
(I2
tp1778
g12
I00
S'H\xb2\x12C\xbaU4C'
p1779
tp1780
bsS'RWE INNOGY UK LTD'
p1781
g2
(g3
(I0
tp1782
g5
tp1783
Rp1784
(I1
(I2
tp1785
g12
I00
S'Om\xf2\xc1\xaf!=\xc2'
p1786
tp1787
bsS'HARYANA POWER GEN CO (HPGC)'
p1788
g2
(g3
(I0
tp1789
g5
tp1790
Rp1791
(I1
(I2
tp1792
g12
I00
S'\x0c\xda\x14C2\xdb4\xc2'
p1793
tp1794
bsS'JIANGXI FENGCHENG POWER GEN CO'
p1795
g2
(g3
(I0
tp1796
g5
tp1797
Rp1798
(I1
(I2
tp1799
g12
I00
S'\x96\x08!C\x07d&C'
p1800
tp1801
bsS'VITEBSKENERGO'
p1802
g2
(g3
(I0
tp1803
g5
tp1804
Rp1805
(I1
(I2
tp1806
g12
I00
S'\xa4%SC\xc6?cC'
p1807
tp1808
bsS'GDF SUEZ ENERGY AUSTRALIA'
p1809
g2
(g3
(I0
tp1810
g5
tp1811
Rp1812
(I1
(I2
tp1813
g12
I00
S'\xa4\x02\xd8B\xb5kD\xc3'
p1814
tp1815
bsS'GD POWER DEVELOPMENT CO LTD'
p1816
g2
(g3
(I0
tp1817
g5
tp1818
Rp1819
(I1
(I2
tp1820
g12
I00
S'\xc4\xf2\x06C\x00\xdd\x08C'
p1821
tp1822
bsS'NALANDA POWER CO LTD'
p1823
g2
(g3
(I0
tp1824
g5
tp1825
Rp1826
(I1
(I2
tp1827
g12
I00
S'\xfa?\x14CXZ\x9f\xc2'
p1828
tp1829
bsS'LB'
p1830
g2
(g3
(I0
tp1831
g5
tp1832
Rp1833
(I1
(I2
tp1834
g12
I00
S'\xfbr\x0fB<k\x07B'
p1835
tp1836
bsS'IRKUTSKENERGO'
p1837
g2
(g3
(I0
tp1838
g5
tp1839
Rp1840
(I1
(I2
tp1841
g12
I00
S'B\xf1\x8bC\xe9j\x8dB'
p1842
tp1843
bsS'CENT ELETRICAS NORTE DO BRASIL'
p1844
g2
(g3
(I0
tp1845
g5
tp1846
Rp1847
(I1
(I2
tp1848
g12
I00
S'\xe8\x92\xef\xc2"Q\xf9\xc2'
p1849
tp1850
bsS'BRUCE POWER INC'
p1851
g2
(g3
(I0
tp1852
g5
tp1853
Rp1854
(I1
(I2
tp1855
g12
I00
S'~\x9d\x8e\xc3\xa7=\xaaB'
p1856
tp1857
bsS'CALPINE CORP'
p1858
g2
(g3
(I0
tp1859
g5
tp1860
Rp1861
(I1
(I2
tp1862
g12
I00
S'T\xefU\xc3\xec\x9c\xa6B'
p1863
tp1864
bsS'CAITHNESS ENERGY LLC'
p1865
g2
(g3
(I0
tp1866
g5
tp1867
Rp1868
(I1
(I2
tp1869
g12
I00
S'\x01\x80]\xc3\x05\xf7\xabB'
p1870
tp1871
bsS'SINDHUDURG MEGAPROJECT'
p1872
g2
(g3
(I0
tp1873
g5
tp1874
Rp1875
(I1
(I2
tp1876
g12
I00
S'\x0cV\xe4B\xda\x99\x8a\xc2'
p1877
tp1878
bsS'KUZBASSENERGO (TGC-12)'
p1879
g2
(g3
(I0
tp1880
g5
tp1881
Rp1882
(I1
(I2
tp1883
g12
I00
S'\xe5\xabwC\xdd,\xdeA'
p1884
tp1885
bsS'E.ON BENELUX'
p1886
g2
(g3
(I0
tp1887
g5
tp1888
Rp1889
(I1
(I2
tp1890
g12
I00
S'\xd2uK\xc2\x84\x99\xa1\xc2'
p1891
tp1892
bsS'HUANENG LANCANG HYDROPOWER CO'
p1893
g2
(g3
(I0
tp1894
g5
tp1895
Rp1896
(I1
(I2
tp1897
g12
I00
S'\x856\xf8B\xd3U\x15C'
p1898
tp1899
bsS'THDC INDIA LTD'
p1900
g2
(g3
(I0
tp1901
g5
tp1902
Rp1903
(I1
(I2
tp1904
g12
I00
S'+\xf9\x01C\xa6/2\xc2'
p1905
tp1906
bsS'YUNNAN JINSHA RIVER HYDRO CO'
p1907
g2
(g3
(I0
tp1908
g5
tp1909
Rp1910
(I1
(I2
tp1911
g12
I00
S'\x8b\x05\x15C\xac\xfb\x1bC'
p1912
tp1913
bsS'DONBASSENERGO'
p1914
g2
(g3
(I0
tp1915
g5
tp1916
Rp1917
(I1
(I2
tp1918
g12
I00
S'\xb5\xfesCG\x9d\xba@'
p1919
tp1920
bsS'PATTERN ENERGY GROUP LP'
p1921
g2
(g3
(I0
tp1922
g5
tp1923
Rp1924
(I1
(I2
tp1925
g12
I00
S'\xe2?H\xc35_\x8eB'
p1926
tp1927
bsS'MIDLAND COGEN VENTURE LP'
p1928
g2
(g3
(I0
tp1929
g5
tp1930
Rp1931
(I1
(I2
tp1932
g12
I00
S'\x03\x8fT\xc3\xba\x93\xe6B'
p1933
tp1934
bsS'WESTAR ENERGY INC'
p1935
g2
(g3
(I0
tp1936
g5
tp1937
Rp1938
(I1
(I2
tp1939
g12
I00
S'+\x85A\xc3\xd5\x16\xd8B'
p1940
tp1941
bsS'HUADIAN GUIZHOU CO'
p1942
g2
(g3
(I0
tp1943
g5
tp1944
Rp1945
(I1
(I2
tp1946
g12
I00
S'\xfd\x0b\x0cC\xdbJ C'
p1947
tp1948
bsS'FIRSTENERGY NUCLEAR OPERATING'
p1949
g2
(g3
(I0
tp1950
g5
tp1951
Rp1952
(I1
(I2
tp1953
g12
I00
S'\x10\x159\xc37\xde\xd0B'
p1954
tp1955
bsS'BLUE CASTLE HOLDINGS INC'
p1956
g2
(g3
(I0
tp1957
g5
tp1958
Rp1959
(I1
(I2
tp1960
g12
I00
S'\xf2\rY\xc3\xc2o\x84B'
p1961
tp1962
bsS'EMIRATES ALUMINIUM (EMAL)'
p1963
g2
(g3
(I0
tp1964
g5
tp1965
Rp1966
(I1
(I2
tp1967
g12
I00
S'\x91_(Cc\x071\xc3'
p1968
tp1969
bsS'EDF ENERGY'
p1970
g2
(g3
(I0
tp1971
g5
tp1972
Rp1973
(I1
(I2
tp1974
g12
I00
S'\x01\xe8P\xc1Ob\xf2\xc1'
p1975
tp1976
bsS'VORALBERGER ILLWERKE AG'
p1977
g2
(g3
(I0
tp1978
g5
tp1979
Rp1980
(I1
(I2
tp1981
g12
I00
S'\x11\x0b\xd3B\xb8z\x1c\xc3'
p1982
tp1983
bsS'ELEKTROPRIVREDA CRNE GORE'
p1984
g2
(g3
(I0
tp1985
g5
tp1986
Rp1987
(I1
(I2
tp1988
g12
I00
S'\x86\xbd\x03\xc2f\x1d\x85C'
p1989
tp1990
bsS'DTEK DNEPROENERGO'
p1991
g2
(g3
(I0
tp1992
g5
tp1993
Rp1994
(I1
(I2
tp1995
g12
I00
S'\x0e\xdb\\Cs,\xb6@'
p1996
tp1997
bsS'HUBEI NUCLEAR POWER CO'
p1998
g2
(g3
(I0
tp1999
g5
tp2000
Rp2001
(I1
(I2
tp2002
g12
I00
S':\x92\xffB\x8a|*C'
p2003
tp2004
bsS'ENVIROPOWER LLC'
p2005
g2
(g3
(I0
tp2006
g5
tp2007
Rp2008
(I1
(I2
tp2009
g12
I00
S'y\x9eW\xc3\xf1d\xd9B'
p2010
tp2011
bsS'ATHENA ENERGY VENTURES PVT LTD'
p2012
g2
(g3
(I0
tp2013
g5
tp2014
Rp2015
(I1
(I2
tp2016
g12
I00
S'\x86O\xfeB\xd4\xdd\x8c\xc2'
p2017
tp2018
bsS'CHINA NATIONAL NUCLEAR CORP'
p2019
g2
(g3
(I0
tp2020
g5
tp2021
Rp2022
(I1
(I2
tp2023
g12
I00
S"6'\x08C\x82n\x18C"
p2024
tp2025
bsS'PT INDONESIA POWER'
p2026
g2
(g3
(I0
tp2027
g5
tp2028
Rp2029
(I1
(I2
tp2030
g12
I00
S'F$\x8dB;\x12\xef\xc2'
p2031
tp2032
bsS'KYUSHU ELECTRIC POWER CO'
p2033
g2
(g3
(I0
tp2034
g5
tp2035
Rp2036
(I1
(I2
tp2037
g12
I00
S'0d\x83C\x15\x9bb\xc2'
p2038
tp2039
bsS'BASIN ELECTRIC POWER COOP'
p2040
g2
(g3
(I0
tp2041
g5
tp2042
Rp2043
(I1
(I2
tp2044
g12
I00
S'\x18\xf2Q\xc3U\x16\xbcB'
p2045
tp2046
bsS'MERIDIAN ENERGY LTD'
p2047
g2
(g3
(I0
tp2048
g5
tp2049
Rp2050
(I1
(I2
tp2051
g12
I00
S'\xf8^\xadC`X\x1c\xc3'
p2052
tp2053
bsS'PUBLIC ESTAB GEN ELEC (PEEG)'
p2054
g2
(g3
(I0
tp2055
g5
tp2056
Rp2057
(I1
(I2
tp2058
g12
I00
S'y\xffg\xc2\x9d\xd8\x10\xc3'
p2059
tp2060
bsS'EDISON SPA'
p2061
g2
(g3
(I0
tp2062
g5
tp2063
Rp2064
(I1
(I2
tp2065
g12
I00
S'\x83K\x16\xc2\x9ew\xb2\xc2'
p2066
tp2067
bsS'DUKE POWER CO'
p2068
g2
(g3
(I0
tp2069
g5
tp2070
Rp2071
(I1
(I2
tp2072
g12
I00
S"&PB\xc3'r\xc9B"
p2073
tp2074
bsS'AES CORP'
p2075
g2
(g3
(I0
tp2076
g5
tp2077
Rp2078
(I1
(I2
tp2079
g12
I00
S'\xd9\xec1\xc3\x7fn\xbdB'
p2080
tp2081
bsS'J-POWER VIETNAM'
p2082
g2
(g3
(I0
tp2083
g5
tp2084
Rp2085
(I1
(I2
tp2086
g12
I00
S'\xdf-\x8bC\xed\x81\x94\xc2'
p2087
tp2088
bsS'RU'
p2089
g2
(g3
(I0
tp2090
g5
tp2091
Rp2092
(I1
(I2
tp2093
g12
I00
S'4\xa3\xd2B\x96\x18vB'
p2094
tp2095
bsS'CHUBU ELECTRIC POWER CO INC'
p2096
g2
(g3
(I0
tp2097
g5
tp2098
Rp2099
(I1
(I2
tp2100
g12
I00
S'g\xeafC\x1et\x97\xc1'
p2101
tp2102
bsS'RS'
p2103
g2
(g3
(I0
tp2104
g5
tp2105
Rp2106
(I1
(I2
tp2107
g12
I00
S'\x00\x0c\xa8A\xeb\x100B'
p2108
tp2109
bsS'SNOWY HYDRO LTD'
p2110
g2
(g3
(I0
tp2111
g5
tp2112
Rp2113
(I1
(I2
tp2114
g12
I00
S'!\xb3\xf0B\x03\xedA\xc3'
p2115
tp2116
bsS'COBISA CORP'
p2117
g2
(g3
(I0
tp2118
g5
tp2119
Rp2120
(I1
(I2
tp2121
g12
I00
S'#\xaa\\\xc3\xef\x18\xcfB'
p2122
tp2123
bsS'US ARMY CORPS ENGINEERS'
p2124
g2
(g3
(I0
tp2125
g5
tp2126
Rp2127
(I1
(I2
tp2128
g12
I00
S'Gn8\xc3k\x14\xb3B'
p2129
tp2130
bsS'PUNJAB STATE POWER CORP LTD'
p2131
g2
(g3
(I0
tp2132
g5
tp2133
Rp2134
(I1
(I2
tp2135
g12
I00
S'\xe8\xae\x0bC\xbf\x88h\xc2'
p2136
tp2137
bsS'CORPORATE POWER LTD'
p2138
g2
(g3
(I0
tp2139
g5
tp2140
Rp2141
(I1
(I2
tp2142
g12
I00
S'\x00L\x16C\x0e\xf6\x95\xc2'
p2143
tp2144
bsS'WEST BENGAL POWER DEV CORP'
p2145
g2
(g3
(I0
tp2146
g5
tp2147
Rp2148
(I1
(I2
tp2149
g12
I00
S'>\xc0\x02C\xb7\xfb^\xc2'
p2150
tp2151
bsS'CSEC GUOHUA INTL POWER CO'
p2152
g2
(g3
(I0
tp2153
g5
tp2154
Rp2155
(I1
(I2
tp2156
g12
I00
S'\xe9.\x00C0!\x1fC'
p2157
tp2158
bsS'INTERNATIONAL PAPER CO'
p2159
g2
(g3
(I0
tp2160
g5
tp2161
Rp2162
(I1
(I2
tp2163
g12
I00
S'\x92\xe2[\xc3H\xd0\xdaB'
p2164
tp2165
bsS'GDF SUEZ ENERGY INTERNATIONAL'
p2166
g2
(g3
(I0
tp2167
g5
tp2168
Rp2169
(I1
(I2
tp2170
g12
I00
S'\xb8({B\xb0S~B'
p2171
tp2172
bsS'SHIKOKU ELECTRIC POWER CO'
p2173
g2
(g3
(I0
tp2174
g5
tp2175
Rp2176
(I1
(I2
tp2177
g12
I00
S'\x8cW\x85C\x97\xe0\x9f\xc2'
p2178
tp2179
bsS'HYDRO-QUEBEC'
p2180
g2
(g3
(I0
tp2181
g5
tp2182
Rp2183
(I1
(I2
tp2184
g12
I00
S'l\xabF\xc3h6\xf7B'
p2185
tp2186
bsS'CPS ENERGY'
p2187
g2
(g3
(I0
tp2188
g5
tp2189
Rp2190
(I1
(I2
tp2191
g12
I00
S'v\x88B\xc3\r\xa8\x8eB'
p2192
tp2193
bsS'IRAN POWER DEVELOPMENT CO'
p2194
g2
(g3
(I0
tp2195
g5
tp2196
Rp2197
(I1
(I2
tp2198
g12
I00
S'\xb2\x82%B\xce*oC'
p2199
tp2200
bsS'JSC RAO ENERGY SYSTEM OF EAST'
p2201
g2
(g3
(I0
tp2202
g5
tp2203
Rp2204
(I1
(I2
tp2205
g12
I00
S'Vk\x92C\x1c\x9eFB'
p2206
tp2207
bsS'ARIZONA PUBLIC SERVICE CO'
p2208
g2
(g3
(I0
tp2209
g5
tp2210
Rp2211
(I1
(I2
tp2212
g12
I00
S'\x9dgF\xc3\x15b\xbbB'
p2213
tp2214
bsS'CHINA SOUTHERN POWER GRID CO'
p2215
g2
(g3
(I0
tp2216
g5
tp2217
Rp2218
(I1
(I2
tp2219
g12
I00
S'K\xd4$C\x8fS\xd5B'
p2220
tp2221
bsS'NORTHWEST CHINA ELECTRIC POWER'
p2222
g2
(g3
(I0
tp2223
g5
tp2224
Rp2225
(I1
(I2
tp2226
g12
I00
S'\xdc\xb8\x1dC\xe8\xd2\rC'
p2227
tp2228
bsS'IBERDROLA RENEWABLES LLC'
p2229
g2
(g3
(I0
tp2230
g5
tp2231
Rp2232
(I1
(I2
tp2233
g12
I00
S's\xc29\xc3\x83\x7f\xc4B'
p2234
tp2235
bsS'ENBW ENERGIE BADEN-WURTTEMBERG'
p2236
g2
(g3
(I0
tp2237
g5
tp2238
Rp2239
(I1
(I2
tp2240
g12
I00
S'\x0e\x87d\xc2\x15\x0f\xb0\xc1'
p2241
tp2242
bsS'RAS GIRTAS POWER CO (RGP)'
p2243
g2
(g3
(I0
tp2244
g5
tp2245
Rp2246
(I1
(I2
tp2247
g12
I00
S'\xbf\xce]C\xafF\x06\xc3'
p2248
tp2249
bsS'GUODIAN DADU RIVER HYDROPOWER'
p2250
g2
(g3
(I0
tp2251
g5
tp2252
Rp2253
(I1
(I2
tp2254
g12
I00
S'\x8d;\xf2Bx\r\x12C'
p2255
tp2256
bsS'CHINA NATIONAL COAL GROUP'
p2257
g2
(g3
(I0
tp2258
g5
tp2259
Rp2260
(I1
(I2
tp2261
g12
I00
S'\xbc\xb4\xfcB\x90\xe5-C'
p2262
tp2263
bsS'NABINAGAR POWER GENERATING CO'
p2264
g2
(g3
(I0
tp2265
g5
tp2266
Rp2267
(I1
(I2
tp2268
g12
I00
S'\x02(\x15Cnw\x7f\xc2'
p2269
tp2270
bsS'IRAN WATER & POWER RES DEV CO'
p2271
g2
(g3
(I0
tp2272
g5
tp2273
Rp2274
(I1
(I2
tp2275
g12
I00
S'G\xecJB\xfemmC'
p2276
tp2277
bsS'PUBLIC POWER CORP (DEI)'
p2278
g2
(g3
(I0
tp2279
g5
tp2280
Rp2281
(I1
(I2
tp2282
g12
I00
S':\xa1\x12\xc2}\xafLC'
p2283
tp2284
bsS'CHINA SHENHUA ENERGY CO LTD'
p2285
g2
(g3
(I0
tp2286
g5
tp2287
Rp2288
(I1
(I2
tp2289
g12
I00
S'8\x8d\xffB\xbeY\x0bC'
p2290
tp2291
bsS'JORDAN ATOMIC ENERGY COMM'
p2292
g2
(g3
(I0
tp2293
g5
tp2294
Rp2295
(I1
(I2
tp2296
g12
I00
S'\x97\xbd6Ci2#\xc3'
p2297
tp2298
bsS'JSC EKIBASTUZSKAYA GRES-2'
p2299
g2
(g3
(I0
tp2300
g5
tp2301
Rp2302
(I1
(I2
tp2303
g12
I00
S'\xf0\x90\xdeB\xd0#pC'
p2304
tp2305
bsS'ENERJISA ENERJI URETIM (ENE)'
p2306
g2
(g3
(I0
tp2307
g5
tp2308
Rp2309
(I1
(I2
tp2310
g12
I00
S'\x15\x91\x02\xc36R\x95\xc1'
p2311
tp2312
bsS'JINDAL STEEL & POWER LTD'
p2313
g2
(g3
(I0
tp2314
g5
tp2315
Rp2316
(I1
(I2
tp2317
g12
I00
S'D\n\xe4B\x8c\x98|\xc2'
p2318
tp2319
bsS'CENT NUCLEARES ALMARAZ-TRILLO'
p2320
g2
(g3
(I0
tp2321
g5
tp2322
Rp2323
(I1
(I2
tp2324
g12
I00
S'\xe1\x83\xd9\xc2\xea\xb0\xf7@'
p2325
tp2326
bsS'ELEC AUTHORITY OF CYPRUS'
p2327
g2
(g3
(I0
tp2328
g5
tp2329
Rp2330
(I1
(I2
tp2331
g12
I00
S'\x87B$\xc1@\xf4A\xc3'
p2332
tp2333
bsS'PANCHESHWAR DEVELOPMENT AUTH'
p2334
g2
(g3
(I0
tp2335
g5
tp2336
Rp2337
(I1
(I2
tp2338
g12
I00
S'=\x16\xac@T\xcd&\xc3'
p2339
tp2340
bsS'EDP ENERGIAS DO BRASIL SA'
p2341
g2
(g3
(I0
tp2342
g5
tp2343
Rp2344
(I1
(I2
tp2345
g12
I00
S'\xe2:\r\xc3W\x12\xd8\xc2'
p2346
tp2347
bsS'IDAHO POWER CO'
p2348
g2
(g3
(I0
tp2349
g5
tp2350
Rp2351
(I1
(I2
tp2352
g12
I00
S'R _\xc3\xf1B\xb4B'
p2353
tp2354
bsS'EL PASO MERCHANT ENERGY'
p2355
g2
(g3
(I0
tp2356
g5
tp2357
Rp2358
(I1
(I2
tp2359
g12
I00
S'\x80\xaeY\xc3\xeb-\xc4B'
p2360
tp2361
bsS'DTEK ZAKHIDENERGO'
p2362
g2
(g3
(I0
tp2363
g5
tp2364
Rp2365
(I1
(I2
tp2366
g12
I00
S'N\xfchC\x9a\xb3\xf9@'
p2367
tp2368
bsS'BHAKRA BEAS MANAGEMENT BOARD'
p2369
g2
(g3
(I0
tp2370
g5
tp2371
Rp2372
(I1
(I2
tp2373
g12
I00
S'n\x93\x1dCv\x0ef\xc2'
p2374
tp2375
bsS'CAIRO ELEC PROD CO (CEPC)'
p2376
g2
(g3
(I0
tp2377
g5
tp2378
Rp2379
(I1
(I2
tp2380
g12
I00
S'\x9c\x03\x84A%\x873\xc3'
p2381
tp2382
bsS'SO MISSISSIPPI ELEC POWER ASSN'
p2383
g2
(g3
(I0
tp2384
g5
tp2385
Rp2386
(I1
(I2
tp2387
g12
I00
S'$\xa1Z\xc3\xc0\xa0\x8bB'
p2388
tp2389
bsS'STERLITE ENERGY LTD (SEL)'
p2390
g2
(g3
(I0
tp2391
g5
tp2392
Rp2393
(I1
(I2
tp2394
g12
I00
S'\xbc\x16\x01Cx\x89\x96\xc2'
p2395
tp2396
bsS'DUNAMENTI EROMU ZRT'
p2397
g2
(g3
(I0
tp2398
g5
tp2399
Rp2400
(I1
(I2
tp2401
g12
I00
S'\x10ks\xc2&@\x9bB'
p2402
tp2403
bsS'RELIANCE INFRASTRUCTURE LTD'
p2404
g2
(g3
(I0
tp2405
g5
tp2406
Rp2407
(I1
(I2
tp2408
g12
I00
S'\t\x05\x0fC\x1dR\x88\xc2'
p2409
tp2410
bsS'CHINA YANGTZE POWER CORP (CYP)'
p2411
g2
(g3
(I0
tp2412
g5
tp2413
Rp2414
(I1
(I2
tp2415
g12
I00
S'\r\x16\xf9B\xc2\n\x0cC'
p2416
tp2417
bsS'PETROVIETNAM POWER CORP'
p2418
g2
(g3
(I0
tp2419
g5
tp2420
Rp2421
(I1
(I2
tp2422
g12
I00
S']\xe5hC\x07F\r\xc2'
p2423
tp2424
bsS'IL&FS - INFRA LEASING & FINAN'
p2425
g2
(g3
(I0
tp2426
g5
tp2427
Rp2428
(I1
(I2
tp2429
g12
I00
S'^y\x1bC\xe59\x99\xc2'
p2430
tp2431
bsS'INNER MONGOLIA ENERGY INVEST'
p2432
g2
(g3
(I0
tp2433
g5
tp2434
Rp2435
(I1
(I2
tp2436
g12
I00
S'\x1f[\rC\x0f9$C'
p2437
tp2438
bsS'HIDROELECTRICA DE CAHORA BASSA'
p2439
g2
(g3
(I0
tp2440
g5
tp2441
Rp2442
(I1
(I2
tp2443
g12
I00
S'\xae\xa2oB\x91\xde}\xc3'
p2444
tp2445
bsS'CNNC GUODIAN ZHANGZHOU ENERGY'
p2446
g2
(g3
(I0
tp2447
g5
tp2448
Rp2449
(I1
(I2
tp2450
g12
I00
S'U!\x15C8\xb0\rC'
p2451
tp2452
bsS'VOLTA RIVER AUTHORITY'
p2453
g2
(g3
(I0
tp2454
g5
tp2455
Rp2456
(I1
(I2
tp2457
g12
I00
S'Z\x9b\xb8\xc2J\xf9<\xc3'
p2458
tp2459
bsS'ENTERGY NUCLEAR INC'
p2460
g2
(g3
(I0
tp2461
g5
tp2462
Rp2463
(I1
(I2
tp2464
g12
I00
S'x>D\xc3\xf3\xcf\xb5B'
p2465
tp2466
bsS'PT BHIMASENA POWER INDO (BPI)'
p2467
g2
(g3
(I0
tp2468
g5
tp2469
Rp2470
(I1
(I2
tp2471
g12
I00
S"\xa0T'B\xe1\xb8\x01\xc3"
p2472
tp2473
bsS'OJSC YENISEI TGC (TGC-13)'
p2474
g2
(g3
(I0
tp2475
g5
tp2476
Rp2477
(I1
(I2
tp2478
g12
I00
S'\x83\xc2\x8cC\x87\xb1\x13B'
p2479
tp2480
bsS'GUANGXI GUIGUAN ELECTRIC POWER'
p2481
g2
(g3
(I0
tp2482
g5
tp2483
Rp2484
(I1
(I2
tp2485
g12
I00
S'\x91Y\xf5B\xaf8 C'
p2486
tp2487
bsS'ESSAR POWER LTD'
p2488
g2
(g3
(I0
tp2489
g5
tp2490
Rp2491
(I1
(I2
tp2492
g12
I00
S'\xf5\x9d\xedBaFb\xc2'
p2493
tp2494
bsS'VE'
p2495
g2
(g3
(I0
tp2496
g5
tp2497
Rp2498
(I1
(I2
tp2499
g12
I00
S'\xf1-\x85\xc2\\\x8f\xcd@'
p2500
tp2501
bsS'ENTERGY TEXAS INC'
p2502
g2
(g3
(I0
tp2503
g5
tp2504
Rp2505
(I1
(I2
tp2506
g12
I00
S'ZaV\xc3\x0f\xc4\x8aB'
p2507
tp2508
bsS'FUJAIRAH ASIA POWER CO (FAPCO)'
p2509
g2
(g3
(I0
tp2510
g5
tp2511
Rp2512
(I1
(I2
tp2513
g12
I00
S'\xe5V3C\xc8\x8a;\xc3'
p2514
tp2515
bsS'LONG ISLAND LIGHTING CO'
p2516
g2
(g3
(I0
tp2517
g5
tp2518
Rp2519
(I1
(I2
tp2520
g12
I00
S'A\xbcP\xc3\x9f\xbc\x81B'
p2521
tp2522
bsS'EDP RENOVAVEIS'
p2523
g2
(g3
(I0
tp2524
g5
tp2525
Rp2526
(I1
(I2
tp2527
g12
I00
S'\t?\xcc\xc2q.{\xbf'
p2528
tp2529
bsS'KERNKRAFTWERK GUNDREMMINGEN'
p2530
g2
(g3
(I0
tp2531
g5
tp2532
Rp2533
(I1
(I2
tp2534
g12
I00
S'g\xfb\x93\xc2mM7\xc2'
p2535
tp2536
bsS'CLP POWER CHINA LTD'
p2537
g2
(g3
(I0
tp2538
g5
tp2539
Rp2540
(I1
(I2
tp2541
g12
I00
S'Z~\x1bC\x00\xc4*C'
p2542
tp2543
bsS'PLTU JAWA-4'
p2544
g2
(g3
(I0
tp2545
g5
tp2546
Rp2547
(I1
(I2
tp2548
g12
I00
S'\xeb\x93tB"\xf8\x06\xc3'
p2549
tp2550
bsS'GESA-ENDESA'
p2551
g2
(g3
(I0
tp2552
g5
tp2553
Rp2554
(I1
(I2
tp2555
g12
I00
S';[\xfb\xc2_\xaf\x15\xc1'
p2556
tp2557
bsS'ROCHESTER GAS AND ELEC CORP'
p2558
g2
(g3
(I0
tp2559
g5
tp2560
Rp2561
(I1
(I2
tp2562
g12
I00
S'\xb1\x02@\xc3\x9b\xf4\xd3B'
p2563
tp2564
bsS'OG&E ELECTRIC SERVICES INC'
p2565
g2
(g3
(I0
tp2566
g5
tp2567
Rp2568
(I1
(I2
tp2569
g12
I00
S'\xe1"=\xc3\xbfS\xc6B'
p2570
tp2571
bsS'1MALAYSIA DEVELOPMENT BHD SDN'
p2572
g2
(g3
(I0
tp2573
g5
tp2574
Rp2575
(I1
(I2
tp2576
g12
I00
S'S\xe7OC402B'
p2577
tp2578
bsS'SMART WIND LTD'
p2579
g2
(g3
(I0
tp2580
g5
tp2581
Rp2582
(I1
(I2
tp2583
g12
I00
S'\xf2a\x8b\xc0a\xd8t\xc2'
p2584
tp2585
bsS'AVANTHA POWER & INFRASTRUCTURE'
p2586
g2
(g3
(I0
tp2587
g5
tp2588
Rp2589
(I1
(I2
tp2590
g12
I00
S'\x13\n\x07C\xc5+\xa2\xc2'
p2591
tp2592
bsS'TAOHUAJIANG NUCLEAR POWER CO'
p2593
g2
(g3
(I0
tp2594
g5
tp2595
Rp2596
(I1
(I2
tp2597
g12
I00
S'\x17>\x1aC\xaaX C'
p2598
tp2599
bsS'SJVN LTD'
p2600
g2
(g3
(I0
tp2601
g5
tp2602
Rp2603
(I1
(I2
tp2604
g12
I00
S"\x8dY\xfbB\xce'e\xc2"
p2605
tp2606
bsS'KEPCO PHILIPPINES CORP'
p2607
g2
(g3
(I0
tp2608
g5
tp2609
Rp2610
(I1
(I2
tp2611
g12
I00
S'ha9C%\xcb\xd5B'
p2612
tp2613
bsS'PLTU JAWA-7'
p2614
g2
(g3
(I0
tp2615
g5
tp2616
Rp2617
(I1
(I2
tp2618
g12
I00
S'm\x16JBw\xed\x08\xc3'
p2619
tp2620
bsS'NI'
p2621
g2
(g3
(I0
tp2622
g5
tp2623
Rp2624
(I1
(I2
tp2625
g12
I00
S'\x1aj\xaa\xc2\xbe\xd8MA'
p2626
tp2627
bsS'EE'
p2628
g2
(g3
(I0
tp2629
g5
tp2630
Rp2631
(I1
(I2
tp2632
g12
I00
S'\xde\x1b\xc8A\x8fajB'
p2633
tp2634
bsS'BIG RIVERS ELECTRIC CORP'
p2635
g2
(g3
(I0
tp2636
g5
tp2637
Rp2638
(I1
(I2
tp2639
g12
I00
S'\x9dP^\xc3\xf5\xee\x92B'
p2640
tp2641
bsS'EG'
p2642
g2
(g3
(I0
tp2643
g5
tp2644
Rp2645
(I1
(I2
tp2646
g12
I00
S'\x84k\xf6A~\x90\xd6A'
p2647
tp2648
bsS'JOBAN KYODO POWER CO'
p2649
g2
(g3
(I0
tp2650
g5
tp2651
Rp2652
(I1
(I2
tp2653
g12
I00
S"\x93I\x91C\xd6'\x92\xc2"
p2654
tp2655
bsS'RUSHYDRO'
p2656
g2
(g3
(I0
tp2657
g5
tp2658
Rp2659
(I1
(I2
tp2660
g12
I00
S'~\xd1\x89CW\x02:B'
p2661
tp2662
bsS'MPF HOLDINGS LTD'
p2663
g2
(g3
(I0
tp2664
g5
tp2665
Rp2666
(I1
(I2
tp2667
g12
I00
S'\xc1\x01\x84\xbf\xb5fZ\xc2'
p2668
tp2669
bsS'NATIONAL ENERGY & GAS TRANSM'
p2670
g2
(g3
(I0
tp2671
g5
tp2672
Rp2673
(I1
(I2
tp2674
g12
I00
S'\x19\xc9B\xc3\xddl\xd0B'
p2675
tp2676
bsS'K-ELECTRIC LTD'
p2677
g2
(g3
(I0
tp2678
g5
tp2679
Rp2680
(I1
(I2
tp2681
g12
I00
S'3\xa2.C\x0b[\x06B'
p2682
tp2683
bsS'HC ENERGIA'
p2684
g2
(g3
(I0
tp2685
g5
tp2686
Rp2687
(I1
(I2
tp2688
g12
I00
S'\x80\xe9\xc0\xc2\x05\xe8qA'
p2689
tp2690
bsS'STAR WEST GENERATION LLC'
p2691
g2
(g3
(I0
tp2692
g5
tp2693
Rp2694
(I1
(I2
tp2695
g12
I00
S'uMf\xc3h\x88\x9dB'
p2696
tp2697
bsS'PEPCO ENERGY SERVICES INC'
p2698
g2
(g3
(I0
tp2699
g5
tp2700
Rp2701
(I1
(I2
tp2702
g12
I00
S'\x1e\xf0E\xc3\x02\xe6\xe1B'
p2703
tp2704
bsS'ET'
p2705
g2
(g3
(I0
tp2706
g5
tp2707
Rp2708
(I1
(I2
tp2709
g12
I00
S'm\xf5!B\xecQ\x12A'
p2710
tp2711
bsS'POWERSOUTH ENERGY COOP'
p2712
g2
(g3
(I0
tp2713
g5
tp2714
Rp2715
(I1
(I2
tp2716
g12
I00
S'wSX\xc3\x00\x1f\xe5B'
p2717
tp2718
bsS'NTPC HYDRO LTD'
p2719
g2
(g3
(I0
tp2720
g5
tp2721
Rp2722
(I1
(I2
tp2723
g12
I00
S'`\xc2\x05Ca05\xc2'
p2724
tp2725
bsS'TENNESSEE VALLEY AUTHORITY'
p2726
g2
(g3
(I0
tp2727
g5
tp2728
Rp2729
(I1
(I2
tp2730
g12
I00
S'\xf1z9\xc3eM\xaaB'
p2731
tp2732
bsS'SHANDONG LUNENG GROUP CO LTD'
p2733
g2
(g3
(I0
tp2734
g5
tp2735
Rp2736
(I1
(I2
tp2737
g12
I00
S'\x9d\xfa\nC\xcfs\x14C'
p2738
tp2739
bsS'RIO TINTO ALCAN INC'
p2740
g2
(g3
(I0
tp2741
g5
tp2742
Rp2743
(I1
(I2
tp2744
g12
I00
S'\x94\xb0\x8e\xc3\xaf\xdf\x86B'
p2745
tp2746
bsS'GDF SUEZ ENERGIE DEUTSCHLAND'
p2747
g2
(g3
(I0
tp2748
g5
tp2749
Rp2750
(I1
(I2
tp2751
g12
I00
S'\x9fX\\\xc2\xc9\x97\x1a\xc2'
p2752
tp2753
bsS'PAKISTAN ATOMIC ENERGY COMM'
p2754
g2
(g3
(I0
tp2755
g5
tp2756
Rp2757
(I1
(I2
tp2758
g12
I00
S'\xcfA;C\x90\xadlB'
p2759
tp2760
bsS'HIDROAYSEN'
p2761
g2
(g3
(I0
tp2762
g5
tp2763
Rp2764
(I1
(I2
tp2765
g12
I00
S'C\x04=\xc3\x96\x8b;\xc3'
p2766
tp2767
bsS'AMEREN MISSOURI'
p2768
g2
(g3
(I0
tp2769
g5
tp2770
Rp2771
(I1
(I2
tp2772
g12
I00
S'pt:\xc3JK\xb8B'
p2773
tp2774
bsS'GDF SUEZ ENERGY FRANCE'
p2775
g2
(g3
(I0
tp2776
g5
tp2777
Rp2778
(I1
(I2
tp2779
g12
I00
S'\xd7k\x01\xc3lA\x84A'
p2780
tp2781
bsS'POWERSERAYA LTD'
p2782
g2
(g3
(I0
tp2783
g5
tp2784
Rp2785
(I1
(I2
tp2786
g12
I00
S'\x95\xb1tB\xf1\x7f6\xc3'
p2787
tp2788
bsS'CHENAB VALLEY POWER PROJ LTD'
p2789
g2
(g3
(I0
tp2790
g5
tp2791
Rp2792
(I1
(I2
tp2793
g12
I00
S'\xd1\x0c\x1fCE\x84\x85\xc2'
p2794
tp2795
bsS'GUODIAN TAIZHOU GENERATING CO'
p2796
g2
(g3
(I0
tp2797
g5
tp2798
Rp2799
(I1
(I2
tp2800
g12
I00
S'NZ C\xed\x8c\x1cC'
p2801
tp2802
bsS'GENERAL ELECTRICITY CO LIBYA'
p2803
g2
(g3
(I0
tp2804
g5
tp2805
Rp2806
(I1
(I2
tp2807
g12
I00
S'@\xd6.\xc2\xa1\x1c \xc3'
p2808
tp2809
bsS'RATCHABURI ELEC GEN HOLDING'
p2810
g2
(g3
(I0
tp2811
g5
tp2812
Rp2813
(I1
(I2
tp2814
g12
I00
S'\x7f\xab\x80C\x89U\x0c\xc3'
p2815
tp2816
bsS'DATANG LUOYANG SHOUYANGSHAN'
p2817
g2
(g3
(I0
tp2818
g5
tp2819
Rp2820
(I1
(I2
tp2821
g12
I00
S'\xf3?\x1eC\xd3Y#C'
p2822
tp2823
bsS'SHANDONG NUCLEAR POWER CO LTD'
p2824
g2
(g3
(I0
tp2825
g5
tp2826
Rp2827
(I1
(I2
tp2828
g12
I00
S'f\xd5\xf8B\xd2\x1c+C'
p2829
tp2830
bsS'EAST DELTA ELECTRICITY PROD CO'
p2831
g2
(g3
(I0
tp2832
g5
tp2833
Rp2834
(I1
(I2
tp2835
g12
I00
S'\xb9\xd8\xe0A\x02#5\xc3'
p2836
tp2837
bsS'SC HIDROELECTRICA SA'
p2838
g2
(g3
(I0
tp2839
g5
tp2840
Rp2841
(I1
(I2
tp2842
g12
I00
S'\\\xe2\x9e\xc0\xf8\xaaIC'
p2843
tp2844
bsS'GRUPO ICE'
p2845
g2
(g3
(I0
tp2846
g5
tp2847
Rp2848
(I1
(I2
tp2849
g12
I00
S'M\xc6N\xc3\x10|SC'
p2850
tp2851
bsS'ENRON NORTH AMERICA'
p2852
g2
(g3
(I0
tp2853
g5
tp2854
Rp2855
(I1
(I2
tp2856
g12
I00
S'\xab\x9ea\xc3\xf0.\xbeB'
p2857
tp2858
bsS'METCAP ENERJI YATIRIMLARI'
p2859
g2
(g3
(I0
tp2860
g5
tp2861
Rp2862
(I1
(I2
tp2863
g12
I00
S'r\xd0\xbb\xc2\x8em\x92\xc2'
p2864
tp2865
bsS'ENARSA - ENERGIA ARGENTINA SA'
p2866
g2
(g3
(I0
tp2867
g5
tp2868
Rp2869
(I1
(I2
tp2870
g12
I00
S'\xe5\xd3\xc5\xc2Pdo\xc3'
p2871
tp2872
bsS'DIAMOND GENERATING CORP (US)'
p2873
g2
(g3
(I0
tp2874
g5
tp2875
Rp2876
(I1
(I2
tp2877
g12
I00
S"E\xd5e\xc3'\x1b\xb3B"
p2878
tp2879
bsS'PANDA POWER FUNDS'
p2880
g2
(g3
(I0
tp2881
g5
tp2882
Rp2883
(I1
(I2
tp2884
g12
I00
S'\x17\x8c<\xc3$\x89\x9fB'
p2885
tp2886
bsS'LANDSVIRKJUN'
p2887
g2
(g3
(I0
tp2888
g5
tp2889
Rp2890
(I1
(I2
tp2891
g12
I00
S'\x97q\xc0\xc2\xaf\xa5\x8aC'
p2892
tp2893
bsS'AES GENER SA'
p2894
g2
(g3
(I0
tp2895
g5
tp2896
Rp2897
(I1
(I2
tp2898
g12
I00
S"Y[D\xc3@\x0b'\xc3"
p2899
tp2900
bsS'SOUTHERN SUDAN ELEC CORP'
p2901
g2
(g3
(I0
tp2902
g5
tp2903
Rp2904
(I1
(I2
tp2905
g12
I00
S'\x05\x83\xb3B\xc2\xa8`\xc3'
p2906
tp2907
bsS'GENPOWER HOLDINGS LP'
p2908
g2
(g3
(I0
tp2909
g5
tp2910
Rp2911
(I1
(I2
tp2912
g12
I00
S'\xdd\xcbQ\xc3j\xf3\xeaB'
p2913
tp2914
bsS'FUJIAN ENERGY GROUP CO LTD'
p2915
g2
(g3
(I0
tp2916
g5
tp2917
Rp2918
(I1
(I2
tp2919
g12
I00
S'k!\x17Ctx*C'
p2920
tp2921
bsS'WISCONSIN POWER & LIGHT CO'
p2922
g2
(g3
(I0
tp2923
g5
tp2924
Rp2925
(I1
(I2
tp2926
g12
I00
S'\xa3\x99R\xc3\xf2\xae\xc3B'
p2927
tp2928
bsS'ADHUNIK POWER & NATURAL RES'
p2929
g2
(g3
(I0
tp2930
g5
tp2931
Rp2932
(I1
(I2
tp2933
g12
I00
S'\xb8Q\xfaB\x1c\xc5\xad\xc2'
p2934
tp2935
bsS'BKK'
p2936
g2
(g3
(I0
tp2937
g5
tp2938
Rp2939
(I1
(I2
tp2940
g12
I00
S'\x04\xf1DB-\xf8\xf7?'
p2941
tp2942
bsS'OOO BASHKIR GENERATION CO'
p2943
g2
(g3
(I0
tp2944
g5
tp2945
Rp2946
(I1
(I2
tp2947
g12
I00
S'7\x0f\x90C\xa2\x9c\x16B'
p2948
tp2949
bsS'NUCLEAR POWER QINSHAN JV CO'
p2950
g2
(g3
(I0
tp2951
g5
tp2952
Rp2953
(I1
(I2
tp2954
g12
I00
S'e\x8b\x15C\x04\xed1C'
p2955
tp2956
bsS'ENEL GREEN POWER NO AMERICA'
p2957
g2
(g3
(I0
tp2958
g5
tp2959
Rp2960
(I1
(I2
tp2961
g12
I00
S'\xc5^i\xc3\xa3\x85\xb0B'
p2962
tp2963
bsS'TAMPA ELECTRIC CO'
p2964
g2
(g3
(I0
tp2965
g5
tp2966
Rp2967
(I1
(I2
tp2968
g12
I00
S'C\x19?\xc3#\xfd\xcbB'
p2969
tp2970
bsS'ELECTRABEL NV'
p2971
g2
(g3
(I0
tp2972
g5
tp2973
Rp2974
(I1
(I2
tp2975
g12
I00
S'\xe2\x9e\xce@3\x10\xae\xc2'
p2976
tp2977
bsS'SHENHUA GUONENG ENERGY GROUP'
p2978
g2
(g3
(I0
tp2979
g5
tp2980
Rp2981
(I1
(I2
tp2982
g12
I00
S'\xb8\xb9\xfdB\x9b8\x0fC'
p2983
tp2984
bsS'NIGER DELTA POWER HOLDING CO'
p2985
g2
(g3
(I0
tp2986
g5
tp2987
Rp2988
(I1
(I2
tp2989
g12
I00
S'\x0c%\x9d\xc2\xa8s#\xc3'
p2990
tp2991
bsS'INDIANAPOLIS POWER & LIGHT CO'
p2992
g2
(g3
(I0
tp2993
g5
tp2994
Rp2995
(I1
(I2
tp2996
g12
I00
S'\xdb\xaaE\xc3E\x93\xdaB'
p2997
tp2998
bsS'PUERTO RICO ELEC PWR AUTH'
p2999
g2
(g3
(I0
tp3000
g5
tp3001
Rp3002
(I1
(I2
tp3003
g12
I00
S'\xf3\x0bQ\xc3u>\x98B'
p3004
tp3005
bsS'E-CL'
p3006
g2
(g3
(I0
tp3007
g5
tp3008
Rp3009
(I1
(I2
tp3010
g12
I00
S'\xe8\xe3-\xc3\xeb=8\xc3'
p3011
tp3012
bsS'TOKYO ELECTRIC POWER CO'
p3013
g2
(g3
(I0
tp3014
g5
tp3015
Rp3016
(I1
(I2
tp3017
g12
I00
S'3\nxC\x045u\xc2'
p3018
tp3019
bsS'WELSPUN ENERGY LTD'
p3020
g2
(g3
(I0
tp3021
g5
tp3022
Rp3023
(I1
(I2
tp3024
g12
I00
S'fw\x1fC\xaf%\x8f\xc2'
p3025
tp3026
bsS'LATVENERGO'
p3027
g2
(g3
(I0
tp3028
g5
tp3029
Rp3030
(I1
(I2
tp3031
g12
I00
S'\x9c\xb1\xa9=\xbc\xac\x8cC'
p3032
tp3033
bsS'ODEBRECHT PERU INGEN Y CONST'
p3034
g2
(g3
(I0
tp3035
g5
tp3036
Rp3037
(I1
(I2
tp3038
g12
I00
S'\x8a-M\xc3\x1bo\x11\xc3'
p3039
tp3040
bsS'RAJASTHAN RV UTPADAN NIGAM'
p3041
g2
(g3
(I0
tp3042
g5
tp3043
Rp3044
(I1
(I2
tp3045
g12
I00
S'\x9f\xa1\x05C\xbd\x93H\xc2'
p3046
tp3047
bsS'GREAT RIVER ENERGY'
p3048
g2
(g3
(I0
tp3049
g5
tp3050
Rp3051
(I1
(I2
tp3052
g12
I00
S'\xb6\xb0W\xc3F@\xd2B'
p3053
tp3054
bsS'BELENE POWER CO'
p3055
g2
(g3
(I0
tp3056
g5
tp3057
Rp3058
(I1
(I2
tp3059
g12
I00
S'\x8aU3A\x06\xab=C'
p3060
tp3061
bsS'MISSISSIPPI POWER CO'
p3062
g2
(g3
(I0
tp3063
g5
tp3064
Rp3065
(I1
(I2
tp3066
g12
I00
S'\xfb\xecB\xc3I\xac\xddB'
p3067
tp3068
bsS'DUKE ENERGY INDIANA INC'
p3069
g2
(g3
(I0
tp3070
g5
tp3071
Rp3072
(I1
(I2
tp3073
g12
I00
S'\xd1\x7f<\xc3Gr\xbfB'
p3074
tp3075
bsS'UNIVERSAL CRESCENT POWER LTD'
p3076
g2
(g3
(I0
tp3077
g5
tp3078
Rp3079
(I1
(I2
tp3080
g12
I00
S'x\xbf#C\xd7x|\xc2'
p3081
tp3082
bsS'COASTAL TAMIL NADU POWER LTD'
p3083
g2
(g3
(I0
tp3084
g5
tp3085
Rp3086
(I1
(I2
tp3087
g12
I00
S'\xb3\x92\xecB\xff\x95\x98\xc2'
p3088
tp3089
bsS'SHANXI DATANG INTL POWER GEN'
p3090
g2
(g3
(I0
tp3091
g5
tp3092
Rp3093
(I1
(I2
tp3094
g12
I00
S'b\x86\x04C\xc2K\x11C'
p3095
tp3096
bsS'KOZLODUY NPP PLC'
p3097
g2
(g3
(I0
tp3098
g5
tp3099
Rp3100
(I1
(I2
tp3101
g12
I00
S'\x14m$A\x02\xa41C'
p3102
tp3103
bsS'BROOKFIELD RENEWABLE ENERGY'
p3104
g2
(g3
(I0
tp3105
g5
tp3106
Rp3107
(I1
(I2
tp3108
g12
I00
S'\xaa/_\xc3U\x1d\x9fB'
p3109
tp3110
bsS'WATER & POWER DEVELOP AUTH'
p3111
g2
(g3
(I0
tp3112
g5
tp3113
Rp3114
(I1
(I2
tp3115
g12
I00
S'\xa8\xe0"C\xe3r<B'
p3116
tp3117
bsS'SC TERMOELECTRICA SA'
p3118
g2
(g3
(I0
tp3119
g5
tp3120
Rp3121
(I1
(I2
tp3122
g12
I00
S'\xec\xae\xd2@WVQC'
p3123
tp3124
bsS'KWO KRAFTWERKE OBERHASLI AG'
p3125
g2
(g3
(I0
tp3126
g5
tp3127
Rp3128
(I1
(I2
tp3129
g12
I00
S'[\x13\x98B\xaa\xb0\x89\xc2'
p3130
tp3131
bsS'VECTREN ENERGY DELIVERY IN'
p3132
g2
(g3
(I0
tp3133
g5
tp3134
Rp3135
(I1
(I2
tp3136
g12
I00
S'9\xfe^\xc3j\x1b\xd8B'
p3137
tp3138
bsS'E.ON ESPANA'
p3139
g2
(g3
(I0
tp3140
g5
tp3141
Rp3142
(I1
(I2
tp3143
g12
I00
S'p\x02\xc8\xc2\xe8\xfc\x86@'
p3144
tp3145
bsS'KG'
p3146
g2
(g3
(I0
tp3147
g5
tp3148
Rp3149
(I1
(I2
tp3150
g12
I00
S'>\x88\x95BI\xd1$B'
p3151
tp3152
bsS'KE'
p3153
g2
(g3
(I0
tp3154
g5
tp3155
Rp3156
(I1
(I2
tp3157
g12
I00
S'\xf1\x9f\x17B\xce\xfe\xc0\xbc'
p3158
tp3159
bsS'CAPITAL POWER CORP'
p3160
g2
(g3
(I0
tp3161
g5
tp3162
Rp3163
(I1
(I2
tp3164
g12
I00
S'W\x16l\xc3D\xcc\x9bB'
p3165
tp3166
bsS'KH'
p3167
g2
(g3
(I0
tp3168
g5
tp3169
Rp3170
(I1
(I2
tp3171
g12
I00
S'`\xfb\xd1B\x05\rIA'
p3172
tp3173
bsS'TGC-01 (TERRITORIAL GEN CO 1)'
p3174
g2
(g3
(I0
tp3175
g5
tp3176
Rp3177
(I1
(I2
tp3178
g12
I00
S'\xabknC[\xddTB'
p3179
tp3180
bsS'GUIZHOU ELECTRIC POWER CO'
p3181
g2
(g3
(I0
tp3182
g5
tp3183
Rp3184
(I1
(I2
tp3185
g12
I00
S'\x82W\x1dCW\xb8\x15C'
p3186
tp3187
bsS'TRACTEBEL ENERGIA SA'
p3188
g2
(g3
(I0
tp3189
g5
tp3190
Rp3191
(I1
(I2
tp3192
g12
I00
S'T\xac\x05\xc3\xff_\xd9\xc2'
p3193
tp3194
bsS'DELTA ELECTRICITY'
p3195
g2
(g3
(I0
tp3196
g5
tp3197
Rp3198
(I1
(I2
tp3199
g12
I00
S'9|\x02C\xf9YH\xc3'
p3200
tp3201
bsS'HATTAT  ENERJI VE MADEN TIC'
p3202
g2
(g3
(I0
tp3203
g5
tp3204
Rp3205
(I1
(I2
tp3206
g12
I00
S'\x9d\xe9\xc2\xc2\xe4:\xa2\xc2'
p3207
tp3208
bsS'SUDWESTSTROM STROMHANDELS GMBH'
p3209
g2
(g3
(I0
tp3210
g5
tp3211
Rp3212
(I1
(I2
tp3213
g12
I00
S'\xc2/\xa0\xc2\x1c\xf9\x1e\xc2'
p3214
tp3215
bsS'TIRRENO POWER SPA'
p3216
g2
(g3
(I0
tp3217
g5
tp3218
Rp3219
(I1
(I2
tp3220
g12
I00
S'_\x92\xdf\xc1K6\xbc\xc2'
p3221
tp3222
bsS'ENTIDAD BINACIONAL YACYRETA'
p3223
g2
(g3
(I0
tp3224
g5
tp3225
Rp3226
(I1
(I2
tp3227
g12
I00
S'\xafO\x0f\xc3\x843o\xc3'
p3228
tp3229
bsS'DATANG HEBEI POWER GEN CO LTD'
p3230
g2
(g3
(I0
tp3231
g5
tp3232
Rp3233
(I1
(I2
tp3234
g12
I00
S'\xc6\xcf\tCm,5C'
p3235
tp3236
bsS'LIAONING HONGYANHE NUC POW CO'
p3237
g2
(g3
(I0
tp3238
g5
tp3239
Rp3240
(I1
(I2
tp3241
g12
I00
S'IH\xfbB\x92\xbc&C'
p3242
tp3243
bsS'KZ'
p3244
g2
(g3
(I0
tp3245
g5
tp3246
Rp3247
(I1
(I2
tp3248
g12
I00
S'\xed\xd8\x85B\x0b\x14@B'
p3249
tp3250
bsS'HUANENG HAINAN POWER CO LTD'
p3251
g2
(g3
(I0
tp3252
g5
tp3253
Rp3254
(I1
(I2
tp3255
g12
I00
S'\xb4\x85\x13C$\xe5\x1eC'
p3256
tp3257
bsS'DOMINION VIRGINIA POWER'
p3258
g2
(g3
(I0
tp3259
g5
tp3260
Rp3261
(I1
(I2
tp3262
g12
I00
S'1U<\xc3\x1e\xeb\xa6B'
p3263
tp3264
bsS'VATTENFALL AB'
p3265
g2
(g3
(I0
tp3266
g5
tp3267
Rp3268
(I1
(I2
tp3269
g12
I00
S'c=\xfe\xc1\xb5\x87+C'
p3270
tp3271
bsS'EDF RENEWABLE ENERGY INC'
p3272
g2
(g3
(I0
tp3273
g5
tp3274
Rp3275
(I1
(I2
tp3276
g12
I00
S'\x15\x05b\xc3\x9d|\xb0B'
p3277
tp3278
bsS'DK'
p3279
g2
(g3
(I0
tp3280
g5
tp3281
Rp3282
(I1
(I2
tp3283
g12
I00
S'P\x07\x18AA\x0eaB'
p3284
tp3285
bsS'GDF SUEZ ENERGIE NEDERLAND'
p3286
g2
(g3
(I0
tp3287
g5
tp3288
Rp3289
(I1
(I2
tp3290
g12
I00
S'$\x00\xa4\xc2\x18\x14\xdf\xc2'
p3291
tp3292
bsS'DE'
p3293
g2
(g3
(I0
tp3294
g5
tp3295
Rp3296
(I1
(I2
tp3297
g12
I00
S"s9'A\xab\xa9LB"
p3298
tp3299
bsS'SOUTH CAROLINA ELEC & GAS CO'
p3300
g2
(g3
(I0
tp3301
g5
tp3302
Rp3303
(I1
(I2
tp3304
g12
I00
S'\xc2\x91Q\xc3\x9d{\xaaB'
p3305
tp3306
bsS'RHEINENERGIE AG'
p3307
g2
(g3
(I0
tp3308
g5
tp3309
Rp3310
(I1
(I2
tp3311
g12
I00
S'\x0c3\x85\xc2\xb0\xa2>\xc2'
p3312
tp3313
bsS'FUJIAN ELECTRIC POWER CO LTD'
p3314
g2
(g3
(I0
tp3315
g5
tp3316
Rp3317
(I1
(I2
tp3318
g12
I00
S"\\'\x02C\xc0\x86.C"
p3319
tp3320
bsS'TRANSCORP UGHELLI POWER LTD'
p3321
g2
(g3
(I0
tp3322
g5
tp3323
Rp3324
(I1
(I2
tp3325
g12
I00
S'\x17n\xb4@\xa2\xe7\x04\xc3'
p3326
tp3327
bsS'ACCIONA ENERGIA'
p3328
g2
(g3
(I0
tp3329
g5
tp3330
Rp3331
(I1
(I2
tp3332
g12
I00
S'\x0c\x98\x88\xc2\xdbC\x88B'
p3333
tp3334
bsS'DZ'
p3335
g2
(g3
(I0
tp3336
g5
tp3337
Rp3338
(I1
(I2
tp3339
g12
I00
S'\xa0n\xd4?fE\xe0A'
p3340
tp3341
bsS'VATTENFALL EUROPE NUCLEAR'
p3342
g2
(g3
(I0
tp3343
g5
tp3344
Rp3345
(I1
(I2
tp3346
g12
I00
S'\x88\xa3\x9b\xc2rub\xc2'
p3347
tp3348
bsS'GUODIAN TONGLING POWER GEN CO'
p3349
g2
(g3
(I0
tp3350
g5
tp3351
Rp3352
(I1
(I2
tp3353
g12
I00
S'\xe0 \x0cC\x88\x193C'
p3354
tp3355
bsS'MINISTRY OF ENERGY (NP)'
p3356
g2
(g3
(I0
tp3357
g5
tp3358
Rp3359
(I1
(I2
tp3360
g12
I00
S'E\xe2\xc0A\xdb6"\xc3'
p3361
tp3362
bsS'TURKMENENERGO'
p3363
g2
(g3
(I0
tp3364
g5
tp3365
Rp3366
(I1
(I2
tp3367
g12
I00
S'*\x0bu@\xfa\xc4\x19\xc3'
p3368
tp3369
bsS'DATANG GUIZHOU POWER GEN CORP'
p3370
g2
(g3
(I0
tp3371
g5
tp3372
Rp3373
(I1
(I2
tp3374
g12
I00
S'\x9a(\x19C\x80%\x16C'
p3375
tp3376
bsS'HORMOZGAN REGIONAL ELEC POWER'
p3377
g2
(g3
(I0
tp3378
g5
tp3379
Rp3380
(I1
(I2
tp3381
g12
I00
S'+\x12\xecA\xc6\xd1\x82C'
p3382
tp3383
bsS'JSW ENERGY LTD'
p3384
g2
(g3
(I0
tp3385
g5
tp3386
Rp3387
(I1
(I2
tp3388
g12
I00
S')\x82\x08C\xcb\xa2W\xc2'
p3389
tp3390
bsS'FORSMARK KRAFTGRUPP AB'
p3391
g2
(g3
(I0
tp3392
g5
tp3393
Rp3394
(I1
(I2
tp3395
g12
I00
S'U\xab\x01\xc2i;5C'
p3396
tp3397
bsS'JAMSHORO POWER CO LTD'
p3398
g2
(g3
(I0
tp3399
g5
tp3400
Rp3401
(I1
(I2
tp3402
g12
I00
S'\x13\x87AC\x0e\xa8\xc2A'
p3403
tp3404
bsS'ERM POWER LTD'
p3405
g2
(g3
(I0
tp3406
g5
tp3407
Rp3408
(I1
(I2
tp3409
g12
I00
S'\x94q\xecB\x94\xb0J\xc3'
p3410
tp3411
bsS'CESP'
p3412
g2
(g3
(I0
tp3413
g5
tp3414
Rp3415
(I1
(I2
tp3416
g12
I00
S'\xb8\xc5\xfb\xc2\xca\x15\xe6\xc2'
p3417
tp3418
bsS'STATE NUC POWER DEMO PLANT LTD'
p3419
g2
(g3
(I0
tp3420
g5
tp3421
Rp3422
(I1
(I2
tp3423
g12
I00
S'\xd1?#C\xdd\x07\x1fC'
p3424
tp3425
bsS'EASTERN ENERGY CO'
p3426
g2
(g3
(I0
tp3427
g5
tp3428
Rp3429
(I1
(I2
tp3430
g12
I00
S'\xca\x80OCa\xdd\xe1A'
p3431
tp3432
bsS'APEX CLEAN ENERGY INC'
p3433
g2
(g3
(I0
tp3434
g5
tp3435
Rp3436
(I1
(I2
tp3437
g12
I00
S'\x87\xd8Z\xc3\x82\xd0\xd4B'
p3438
tp3439
bsS'ASSOCIATED ELECTRIC COOP INC'
p3440
g2
(g3
(I0
tp3441
g5
tp3442
Rp3443
(I1
(I2
tp3444
g12
I00
S'\x9e\x1cK\xc3_g\x9bB'
p3445
tp3446
bsS'CPI HUANGHE HYDROPOWER DEV CO'
p3447
g2
(g3
(I0
tp3448
g5
tp3449
Rp3450
(I1
(I2
tp3451
g12
I00
S'H%\x00Cz\xd5\x12C'
p3452
tp3453
bsS'BANGLADESH POWER DEV BOARD'
p3454
g2
(g3
(I0
tp3455
g5
tp3456
Rp3457
(I1
(I2
tp3458
g12
I00
S'\xff\xfe^Ce(\x01C'
p3459
tp3460
bsS'PNM'
p3461
g2
(g3
(I0
tp3462
g5
tp3463
Rp3464
(I1
(I2
tp3465
g12
I00
S'\x1bdT\xc3!@\xd6B'
p3466
tp3467
bsS'LUMINANT'
p3468
g2
(g3
(I0
tp3469
g5
tp3470
Rp3471
(I1
(I2
tp3472
g12
I00
S'\xe7R>\xc3\x86\xeb\xacB'
p3473
tp3474
bsS'ASHUGANJ POWER STATION CO LTD'
p3475
g2
(g3
(I0
tp3476
g5
tp3477
Rp3478
(I1
(I2
tp3479
g12
I00
S'\x84\x01aC\xbbe(C'
p3480
tp3481
bsS'AKKUYU NGS'
p3482
g2
(g3
(I0
tp3483
g5
tp3484
Rp3485
(I1
(I2
tp3486
g12
I00
S'\xfdj\xb3\xc2\x97\x84v\xc2'
p3487
tp3488
bsS'EXELON GENERATION CO LLC'
p3489
g2
(g3
(I0
tp3490
g5
tp3491
Rp3492
(I1
(I2
tp3493
g12
I00
S'\x0c\xdcL\xc3\xc4\xad\x96B'
p3494
tp3495
bsS'ONTARIO POWER GENERATION INC'
p3496
g2
(g3
(I0
tp3497
g5
tp3498
Rp3499
(I1
(I2
tp3500
g12
I00
S'@Y\x8a\xc3\xc5\x9e\x86B'
p3501
tp3502
bsS'NB POWER GENERATION CORP'
p3503
g2
(g3
(I0
tp3504
g5
tp3505
Rp3506
(I1
(I2
tp3507
g12
I00
S'B\x8a\x8d\xc3\xf3\x87\xcfB'
p3508
tp3509
bsS'HANERGY GROUP CO LTD'
p3510
g2
(g3
(I0
tp3511
g5
tp3512
Rp3513
(I1
(I2
tp3514
g12
I00
S'\xefq\x0eC\xe1\xd0\xf7B'
p3515
tp3516
bsS'LUCHEGORSK FUEL ENERGY (LUTEK)'
p3517
g2
(g3
(I0
tp3518
g5
tp3519
Rp3520
(I1
(I2
tp3521
g12
I00
S'\xef\xed\x95C>S;B'
p3522
tp3523
bsS'SMC GLOBAL POWER HOLDINGS CORP'
p3524
g2
(g3
(I0
tp3525
g5
tp3526
Rp3527
(I1
(I2
tp3528
g12
I00
S'5\xb9\xe3B.\xd9_B'
p3529
tp3530
bsS'MESAIEED POWER CO LTD (MCPL)'
p3531
g2
(g3
(I0
tp3532
g5
tp3533
Rp3534
(I1
(I2
tp3535
g12
I00
S'C#OC\xe4\x1e!\xc3'
p3536
tp3537
bsS'NORTH CHINA GRID CO LTD'
p3538
g2
(g3
(I0
tp3539
g5
tp3540
Rp3541
(I1
(I2
tp3542
g12
I00
S'\xa2:\x0fCO\x87\x1dC'
p3543
tp3544
bsS'NEYVELI LIGNITE CORP LTD'
p3545
g2
(g3
(I0
tp3546
g5
tp3547
Rp3548
(I1
(I2
tp3549
g12
I00
S'\xc8Z\xf9B5)U\xc2'
p3550
tp3551
bsS'MAILIAO POWER CO'
p3552
g2
(g3
(I0
tp3553
g5
tp3554
Rp3555
(I1
(I2
tp3556
g12
I00
S'&\xb0\xa2C\xa5|\x06\xc2'
p3557
tp3558
bsS'NRG GLADSTONE'
p3559
g2
(g3
(I0
tp3560
g5
tp3561
Rp3562
(I1
(I2
tp3563
g12
I00
S'z\x8d\xcfB\xcb\xa7R\xc3'
p3564
tp3565
bsS'DATANG JILIN POWER GENERATION'
p3566
g2
(g3
(I0
tp3567
g5
tp3568
Rp3569
(I1
(I2
tp3570
g12
I00
S'{g\xfcB\xc6("C'
p3571
tp3572
bsS'LS POWER GROUP'
p3573
g2
(g3
(I0
tp3574
g5
tp3575
Rp3576
(I1
(I2
tp3577
g12
I00
S'\xea\x9e?\xc3\x08\x1b\xa6B'
p3578
tp3579
bsS'ITAIPU BINACIONAL'
p3580
g2
(g3
(I0
tp3581
g5
tp3582
Rp3583
(I1
(I2
tp3584
g12
I00
S'X\xf8\xee\xc2;5\xe1\xc2'
p3585
tp3586
bsS'NTPC LTD'
p3587
g2
(g3
(I0
tp3588
g5
tp3589
Rp3590
(I1
(I2
tp3591
g12
I00
S'G|\xeeB\xf3\xfaO\xc2'
p3592
tp3593
bsS'JAIPRAKASH POWER VENTURES LTD'
p3594
g2
(g3
(I0
tp3595
g5
tp3596
Rp3597
(I1
(I2
tp3598
g12
I00
S'0\xbc\xe4B\x1d\xd4\x93\xc2'
p3599
tp3600
bsS'EXELON POWER'
p3601
g2
(g3
(I0
tp3602
g5
tp3603
Rp3604
(I1
(I2
tp3605
g12
I00
S'\x81\xc2?\xc3I1\x9fB'
p3606
tp3607
bsS'E.ON PRODUZIONE SPA'
p3608
g2
(g3
(I0
tp3609
g5
tp3610
Rp3611
(I1
(I2
tp3612
g12
I00
S'\x96\xc2\x05\xc1\xf1\xa9\xb7\xc2'
p3613
tp3614
bsS'GUANGDONG YUDEAN GROUP CO LTD'
p3615
g2
(g3
(I0
tp3616
g5
tp3617
Rp3618
(I1
(I2
tp3619
g12
I00
S'{1\x0fC\xd3D\x11C'
p3620
tp3621
bsS'BRIGHTSOURCE ENERGY INC'
p3622
g2
(g3
(I0
tp3623
g5
tp3624
Rp3625
(I1
(I2
tp3626
g12
I00
S'\x9a\xacG\xc3\x0er\x95B'
p3627
tp3628
bsS'AKENERJI ELEKTRIK URETIM AS'
p3629
g2
(g3
(I0
tp3630
g5
tp3631
Rp3632
(I1
(I2
tp3633
g12
I00
S'\x1f\xf5\xa9\xc2>)\x9b\xc2'
p3634
tp3635
bsS'TOHOKU ELECTRIC POWER CO'
p3636
g2
(g3
(I0
tp3637
g5
tp3638
Rp3639
(I1
(I2
tp3640
g12
I00
S'\x07\xe9\x85C\xb1\x16H\xc2'
p3641
tp3642
bsS'ELECTRICITY OF VIETNAM (EVN)'
p3643
g2
(g3
(I0
tp3644
g5
tp3645
Rp3646
(I1
(I2
tp3647
g12
I00
S'\xa2\xf7\x81C\xbb\xa0#\xc2'
p3648
tp3649
bsS'NUCLEAR POWER CORP INDIA'
p3650
g2
(g3
(I0
tp3651
g5
tp3652
Rp3653
(I1
(I2
tp3654
g12
I00
S'\x01&\xf2B\xd4\xd7@\xc2'
p3655
tp3656
bsS'OKG AB'
p3657
g2
(g3
(I0
tp3658
g5
tp3659
Rp3660
(I1
(I2
tp3661
g12
I00
S'\xe1\xe1j\xc21&HC'
p3662
tp3663
bsS'MIDAMERICAN RENEWABLES LLC'
p3664
g2
(g3
(I0
tp3665
g5
tp3666
Rp3667
(I1
(I2
tp3668
g12
I00
S'\xcc\xfbV\xc3\xfb#}B'
p3669
tp3670
bsS'HOOSIER ENERGY'
p3671
g2
(g3
(I0
tp3672
g5
tp3673
Rp3674
(I1
(I2
tp3675
g12
I00
S"T\xaba\xc3\xfb'\x92B"
p3676
tp3677
bsS'LV'
p3678
g2
(g3
(I0
tp3679
g5
tp3680
Rp3681
(I1
(I2
tp3682
g12
I00
S'U\xd3\xc4A\xbf\x84cB'
p3683
tp3684
bsS'CITIC PACIFIC LTD'
p3685
g2
(g3
(I0
tp3686
g5
tp3687
Rp3688
(I1
(I2
tp3689
g12
I00
S'\x1c\x89\x03Cs\x0b!C'
p3690
tp3691
bsS'KOREA WESTERN POWER (KOWEPO)'
p3692
g2
(g3
(I0
tp3693
g5
tp3694
Rp3695
(I1
(I2
tp3696
g12
I00
S'\x18\xb8\x98C<\xee\xe2B'
p3697
tp3698
bsS'OJSC BARKI TOJIK'
p3699
g2
(g3
(I0
tp3700
g5
tp3701
Rp3702
(I1
(I2
tp3703
g12
I00
S'\x8b<\x88CZr\xe7B'
p3704
tp3705
bsS'BASRAH INVESTMENT COMM (BIC)'
p3706
g2
(g3
(I0
tp3707
g5
tp3708
Rp3709
(I1
(I2
tp3710
g12
I00
S'\xc2,\xa2\xc1\xdc\x8e(\xc3'
p3711
tp3712
bsS'DSI - DEVLET SU ISLERI'
p3713
g2
(g3
(I0
tp3714
g5
tp3715
Rp3716
(I1
(I2
tp3717
g12
I00
S'H\xa8\xa8\xc2\x94\xc8\xa7\xc2'
p3718
tp3719
bsS'KENTUCKY UTILITIES CO'
p3720
g2
(g3
(I0
tp3721
g5
tp3722
Rp3723
(I1
(I2
tp3724
g12
I00
S'O\xf9J\xc3Q\x02\x90B'
p3725
tp3726
bsS'TENASKA'
p3727
g2
(g3
(I0
tp3728
g5
tp3729
Rp3730
(I1
(I2
tp3731
g12
I00
S'P};\xc3j\xa2\xafB'
p3732
tp3733
bsS'IND-BARATH ENERGIES LTD'
p3734
g2
(g3
(I0
tp3735
g5
tp3736
Rp3737
(I1
(I2
tp3738
g12
I00
S"\xd9`\x14C\xde'\x8b\xc2"
p3739
tp3740
bsS'JP'
p3741
g2
(g3
(I0
tp3742
g5
tp3743
Rp3744
(I1
(I2
tp3745
g12
I00
S'\xc0@\nC\xbd\xd1\x10B'
p3746
tp3747
bsS'TAURON WYTWARZANIE SA'
p3748
g2
(g3
(I0
tp3749
g5
tp3750
Rp3751
(I1
(I2
tp3752
g12
I00
S'\xcd\xf8\x95\xc2\x05\x8f\x03C'
p3753
tp3754
bsS'HUANENG POWER INTERNATIONAL'
p3755
g2
(g3
(I0
tp3756
g5
tp3757
Rp3758
(I1
(I2
tp3759
g12
I00
S':4\x02C\xcd\xc0\x0eC'
p3760
tp3761
bsS'STATKRAFT GERMANY GMBH'
p3762
g2
(g3
(I0
tp3763
g5
tp3764
Rp3765
(I1
(I2
tp3766
g12
I00
S'\x80\xd9s\xc2\x13nT\xc2'
p3767
tp3768
bsS'HEP PROIZVODNJA DOO'
p3769
g2
(g3
(I0
tp3770
g5
tp3771
Rp3772
(I1
(I2
tp3773
g12
I00
S'mz\x80B\xa0o\x15\xc2'
p3774
tp3775
bsS'ODISHA INTEGRATED POWER LTD'
p3776
g2
(g3
(I0
tp3777
g5
tp3778
Rp3779
(I1
(I2
tp3780
g12
I00
S'\x1d\xbf\x0bC3\xdc\x90\xc2'
p3781
tp3782
bsS'DONG ENERGY UK'
p3783
g2
(g3
(I0
tp3784
g5
tp3785
Rp3786
(I1
(I2
tp3787
g12
I00
S'\xa0\x8d\xcc\xc1\xa7\xfa`\xc2'
p3788
tp3789
bsS'INDIABULLS POWER LTD'
p3790
g2
(g3
(I0
tp3791
g5
tp3792
Rp3793
(I1
(I2
tp3794
g12
I00
S'\x9f\x18\xecBa~\x82\xc2'
p3795
tp3796
bsS'TAVANIR CORP'
p3797
g2
(g3
(I0
tp3798
g5
tp3799
Rp3800
(I1
(I2
tp3801
g12
I00
S'\xe8\xf2\x15B\x0bGhC'
p3802
tp3803
bsS'ROCKLAND CAPITAL'
p3804
g2
(g3
(I0
tp3805
g5
tp3806
Rp3807
(I1
(I2
tp3808
g12
I00
S'\xb3\x9db\xc3\x83M\xb8B'
p3809
tp3810
bsS'CHINA HUANENG GROUP CORP'
p3811
g2
(g3
(I0
tp3812
g5
tp3813
Rp3814
(I1
(I2
tp3815
g12
I00
S'\xe6h\xeeB[\x93\x14C'
p3816
tp3817
bsS'DP&L ENERGY'
p3818
g2
(g3
(I0
tp3819
g5
tp3820
Rp3821
(I1
(I2
tp3822
g12
I00
S'\xd9\xef^\xc3\xc6\x18\x84B'
p3823
tp3824
bsS'ETHIOPIAN ELECTRIC POWER CORP'
p3825
g2
(g3
(I0
tp3826
g5
tp3827
Rp3828
(I1
(I2
tp3829
g12
I00
S'\x97\x0erC\xb9\xd2\xea\xc1'
p3830
tp3831
bsS'CIA HIDRO DO SAO FRANCISCO'
p3832
g2
(g3
(I0
tp3833
g5
tp3834
Rp3835
(I1
(I2
tp3836
g12
I00
S'\xb1f\x06\xc3\x96 \xc1\xc2'
p3837
tp3838
bsS'GRANT COUNTY PUD 2'
p3839
g2
(g3
(I0
tp3840
g5
tp3841
Rp3842
(I1
(I2
tp3843
g12
I00
S'\x1d\x03a\xc3K\xb7\xc4B'
p3844
tp3845
bsS'SAUDI ARAMCO'
p3846
g2
(g3
(I0
tp3847
g5
tp3848
Rp3849
(I1
(I2
tp3850
g12
I00
S'Z\xc0OC\x90\xa5AB'
p3851
tp3852
bsS'OHIO POWER CO'
p3853
g2
(g3
(I0
tp3854
g5
tp3855
Rp3856
(I1
(I2
tp3857
g12
I00
S'\x0f\x8fY\xc3\x81\x8a\xcbB'
p3858
tp3859
bsS'CPFL GERACAO DE ENERGIA SA'
p3860
g2
(g3
(I0
tp3861
g5
tp3862
Rp3863
(I1
(I2
tp3864
g12
I00
S'\'\xd6\x13\xc3"i\xe3\xc2'
p3865
tp3866
bsS'TGC-09 (TERRITORIAL GEN CO 9)'
p3867
g2
(g3
(I0
tp3868
g5
tp3869
Rp3870
(I1
(I2
tp3871
g12
I00
S'$\xb8aC\x14C<B'
p3872
tp3873
bsS'AMERICAN MUNI POWER INC'
p3874
g2
(g3
(I0
tp3875
g5
tp3876
Rp3877
(I1
(I2
tp3878
g12
I00
S'Z\xf7H\xc3\xf3\xfe\xdfB'
p3879
tp3880
bsS'KOREA HYDRO & NUCLEAR POWER CO'
p3881
g2
(g3
(I0
tp3882
g5
tp3883
Rp3884
(I1
(I2
tp3885
g12
I00
S'\xd6\xfd\x90C\x02\x83\xddB'
p3886
tp3887
bsS'GUBIN POWER PROJECT JV'
p3888
g2
(g3
(I0
tp3889
g5
tp3890
Rp3891
(I1
(I2
tp3892
g12
I00
S'v\xf3\xbe\xc2\xaf3\x1fC'
p3893
tp3894
bsS'ELETROBRAS TERMONUCLEAR SA'
p3895
g2
(g3
(I0
tp3896
g5
tp3897
Rp3898
(I1
(I2
tp3899
g12
I00
S']\xb2\x0c\xc3u\xcb\x01\xc3'
p3900
tp3901
bsS'UNELCO-ENDESA'
p3902
g2
(g3
(I0
tp3903
g5
tp3904
Rp3905
(I1
(I2
tp3906
g12
I00
S'\xf6|\xee\xc2\x0bu=\xc1'
p3907
tp3908
bsS'EVN GENCO NO 1'
p3909
g2
(g3
(I0
tp3910
g5
tp3911
Rp3912
(I1
(I2
tp3913
g12
I00
S'(\xbe\x8aC\x11jZ\xc2'
p3914
tp3915
bsS'EVN GENCO NO 2'
p3916
g2
(g3
(I0
tp3917
g5
tp3918
Rp3919
(I1
(I2
tp3920
g12
I00
S'\xc8\xe8\x87C?\x95\xa2\xc2'
p3921
tp3922
bsS'EVN GENCO NO 3'
p3923
g2
(g3
(I0
tp3924
g5
tp3925
Rp3926
(I1
(I2
tp3927
g12
I00
S'*\xb5\x81CH\x91N\xc2'
p3928
tp3929
bsS'NATSIONALNA ELEK KOMP (NEK)'
p3930
g2
(g3
(I0
tp3931
g5
tp3932
Rp3933
(I1
(I2
tp3934
g12
I00
S'\xef\x18\x86B\xcd\xc1\xddB'
p3935
tp3936
bsS'HEBI FENGE POWER GEN CO LTD'
p3937
g2
(g3
(I0
tp3938
g5
tp3939
Rp3940
(I1
(I2
tp3941
g12
I00
S'f,%C\\\x02)C'
p3942
tp3943
bsS'JIANGSU GUOXIN INVEST GROUP'
p3944
g2
(g3
(I0
tp3945
g5
tp3946
Rp3947
(I1
(I2
tp3948
g12
I00
S'\x03\x17\xfaB\xd1R\x19C'
p3949
tp3950
bsS'RO'
p3951
g2
(g3
(I0
tp3952
g5
tp3953
Rp3954
(I1
(I2
tp3955
g12
I00
S'\xed\xbb\xc7A\xcc\xc57B'
p3956
tp3957
bsS'WASHINGTON PUB POWER SUPP SYS'
p3958
g2
(g3
(I0
tp3959
g5
tp3960
Rp3961
(I1
(I2
tp3962
g12
I00
S'\xc6\xedE\xc3;:\xd4B'
p3963
tp3964
bsS'SOUTHWESTERN PUBLIC SERV CO'
p3965
g2
(g3
(I0
tp3966
g5
tp3967
Rp3968
(I1
(I2
tp3969
g12
I00
S'\x901F\xc3\x03\x9f\x89B'
p3970
tp3971
bsS'ODISHA HYDRO POWER CORP (OHPC)'
p3972
g2
(g3
(I0
tp3973
g5
tp3974
Rp3975
(I1
(I2
tp3976
g12
I00
S'\xb5\x85\xeaB\xb7\xf4\xa1\xc2'
p3977
tp3978
bsS'EURASIAN ENERGY CORP (EEC)'
p3979
g2
(g3
(I0
tp3980
g5
tp3981
Rp3982
(I1
(I2
tp3983
g12
I00
S'\x89\xbcBC0\xc4fC'
p3984
tp3985
bsS'ALTERRA POWER CORP'
p3986
g2
(g3
(I0
tp3987
g5
tp3988
Rp3989
(I1
(I2
tp3990
g12
I00
S'\x1e\xa6l\xc3\xbc\xbf\xa5B'
p3991
tp3992
bsS'ALABAMA POWER CO'
p3993
g2
(g3
(I0
tp3994
g5
tp3995
Rp3996
(I1
(I2
tp3997
g12
I00
S'\x01\xe0>\xc3\xe2\x98\xbaB'
p3998
tp3999
bsS'ELECTRICITY SUPPLY BOARD (ESB)'
p4000
g2
(g3
(I0
tp4001
g5
tp4002
Rp4003
(I1
(I2
tp4004
g12
I00
S'\\\xaeg\xc2\x13\xc0\x1bC'
p4005
tp4006
bsS'COMPLEXUL ENERGETIC OLTENIA SA'
p4007
g2
(g3
(I0
tp4008
g5
tp4009
Rp4010
(I1
(I2
tp4011
g12
I00
S'\xf5%\xa7\xbf\x18X\\C'
p4012
tp4013
bsS'DUKE ENERGY RENEWABLES INC'
p4014
g2
(g3
(I0
tp4015
g5
tp4016
Rp4017
(I1
(I2
tp4018
g12
I00
S'\xd4\xf0F\xc3q\x04\xe8B'
p4019
tp4020
bsS'E.ON UK PLC'
p4021
g2
(g3
(I0
tp4022
g5
tp4023
Rp4024
(I1
(I2
tp4025
g12
I00
S'\xc2\xaa\xb8\xc0\xf8}\x07\xc2'
p4026
tp4027
bsS"CPI GUIZHOU PU'AN POWER CO LTD"
p4028
g2
(g3
(I0
tp4029
g5
tp4030
Rp4031
(I1
(I2
tp4032
g12
I00
S'h\x17\x01C\x0b\xa61C'
p4033
tp4034
bsS'JINDAL MOATIZE POWER'
p4035
g2
(g3
(I0
tp4036
g5
tp4037
Rp4038
(I1
(I2
tp4039
g12
I00
S'\x8a\xdc\x12B\x01\xd5|\xc3'
p4040
tp4041
bsS'UJVN LTD'
p4042
g2
(g3
(I0
tp4043
g5
tp4044
Rp4045
(I1
(I2
tp4046
g12
I00
S'\x06U\x12C/ni\xc2'
p4047
tp4048
bsS'INTERMOUNTAIN POWER AGCY'
p4049
g2
(g3
(I0
tp4050
g5
tp4051
Rp4052
(I1
(I2
tp4053
g12
I00
S'\x9a\x87S\xc3\xa8s\xddB'
p4054
tp4055
bsS'DRAX POWER LTD'
p4056
g2
(g3
(I0
tp4057
g5
tp4058
Rp4059
(I1
(I2
tp4060
g12
I00
S'\xc2\xd6R\xc1\xa9\xf97\xc2'
p4061
tp4062
bsS'CHINA HUADIAN INDONESIA'
p4063
g2
(g3
(I0
tp4064
g5
tp4065
Rp4066
(I1
(I2
tp4067
g12
I00
S'\xb08wB\xac\x11\xf9\xc2'
p4068
tp4069
bsS'ENKA POWER'
p4070
g2
(g3
(I0
tp4071
g5
tp4072
Rp4073
(I1
(I2
tp4074
g12
I00
S'\xf3w\xd4\xc2]ta\xc2'
p4075
tp4076
bsS'MINISTRY ELEC POWER INDUSTRY'
p4077
g2
(g3
(I0
tp4078
g5
tp4079
Rp4080
(I1
(I2
tp4081
g12
I00
S'\xe2\xaf\xb0C)\x1e\x06B'
p4082
tp4083
bsS'SHAMARA GROUP'
p4084
g2
(g3
(I0
tp4085
g5
tp4086
Rp4087
(I1
(I2
tp4088
g12
I00
S'\xc2[\x1f\xc1B\xd6)\xc3'
p4089
tp4090
bsS'POWER COMPANY OF WYOMING LLC'
p4091
g2
(g3
(I0
tp4092
g5
tp4093
Rp4094
(I1
(I2
tp4095
g12
I00
S'Oqa\xc3\x855\x88B'
p4096
tp4097
bsS'CHINA DATANG CORP'
p4098
g2
(g3
(I0
tp4099
g5
tp4100
Rp4101
(I1
(I2
tp4102
g12
I00
S'\xdb\x96\xffB\x81}\x16C'
p4103
tp4104
bsS'TEOLLISUUDEN VOIMA OY (TVO)'
p4105
g2
(g3
(I0
tp4106
g5
tp4107
Rp4108
(I1
(I2
tp4109
g12
I00
S'\xe4v3\xc2\x8b\x04\x81C'
p4110
tp4111
bsS'CHONGQING HECHUAN POWER GEN CO'
p4112
g2
(g3
(I0
tp4113
g5
tp4114
Rp4115
(I1
(I2
tp4116
g12
I00
S'\xf5\x80\x03C5e+C'
p4117
tp4118
bsS'EXELON NUCLEAR'
p4119
g2
(g3
(I0
tp4120
g5
tp4121
Rp4122
(I1
(I2
tp4123
g12
I00
S'\xcdeJ\xc3<\xc0\xabB'
p4124
tp4125
bsS'MPX CENTRAL CASTILLA'
p4126
g2
(g3
(I0
tp4127
g5
tp4128
Rp4129
(I1
(I2
tp4130
g12
I00
S'\xac4\n\xc3!\xa3D\xc3'
p4131
tp4132
bsS'OKINAWA ELECTRIC POWER CO'
p4133
g2
(g3
(I0
tp4134
g5
tp4135
Rp4136
(I1
(I2
tp4137
g12
I00
S'\xb8\n\x8eC\xe1B\xa2\xc2'
p4138
tp4139
bsS'HUAYANG ELECTRIC POWER CO LTD'
p4140
g2
(g3
(I0
tp4141
g5
tp4142
Rp4143
(I1
(I2
tp4144
g12
I00
S'wv\x07C4\xbb2C'
p4145
tp4146
bsS'YANGJIANG NUCLEAR POWER CO LTD'
p4147
g2
(g3
(I0
tp4148
g5
tp4149
Rp4150
(I1
(I2
tp4151
g12
I00
S'2h\x0eCc\xee\x06C'
p4152
tp4153
bsS'WEST BENGAL STATE ELEC DISTR'
p4154
g2
(g3
(I0
tp4155
g5
tp4156
Rp4157
(I1
(I2
tp4158
g12
I00
S'6z\x14C[\x8c\xb5\xc2'
p4159
tp4160
bsS'LY'
p4161
g2
(g3
(I0
tp4162
g5
tp4163
Rp4164
(I1
(I2
tp4165
g12
I00
S'\x9f\xd3\x89AI\xae\xd2A'
p4166
tp4167
bsS'PT PEMBANGKITAN JAWA-BALI'
p4168
g2
(g3
(I0
tp4169
g5
tp4170
Rp4171
(I1
(I2
tp4172
g12
I00
S'\xdfYwB\x08\xeb\xd8\xc2'
p4173
tp4174
bsS'PT NALCO'
p4175
g2
(g3
(I0
tp4176
g5
tp4177
Rp4178
(I1
(I2
tp4179
g12
I00
S'\xd1\xd3-B\xd0\xbf\xf2\xc2'
p4180
tp4181
bsS'ZHEJIANG ZHENHAI POWER GEN CO'
p4182
g2
(g3
(I0
tp4183
g5
tp4184
Rp4185
(I1
(I2
tp4186
g12
I00
S'\xbf\xc4\xf4B\x1f\x0e)C'
p4187
tp4188
bsS'EDF ENERGIES NOUVELLES'
p4189
g2
(g3
(I0
tp4190
g5
tp4191
Rp4192
(I1
(I2
tp4193
g12
I00
S'\x8f\x92\xc0\xc27c\xf3@'
p4194
tp4195
bsS'BILGIN ENERJI YATRIM HOLDING'
p4196
g2
(g3
(I0
tp4197
g5
tp4198
Rp4199
(I1
(I2
tp4200
g12
I00
S'\x17\x95\xab\xc2\x1f\xfe\x8b\xc2'
p4201
tp4202
bsS'SONG HAU-3 IPP PROJECT'
p4203
g2
(g3
(I0
tp4204
g5
tp4205
Rp4206
(I1
(I2
tp4207
g12
I00
S'recC&=\xd4\xc2'
p4208
tp4209
bsS'REPOWER AG'
p4210
g2
(g3
(I0
tp4211
g5
tp4212
Rp4213
(I1
(I2
tp4214
g12
I00
S'C\xe19\xc2BOJ\xc2'
p4215
tp4216
bsS'POSCO ENERGY CO LTD'
p4217
g2
(g3
(I0
tp4218
g5
tp4219
Rp4220
(I1
(I2
tp4221
g12
I00
S'-\x0foCJ\xa1\xcaB'
p4222
tp4223
bsS'TAN TAO ENERGY CORP'
p4224
g2
(g3
(I0
tp4225
g5
tp4226
Rp4227
(I1
(I2
tp4228
g12
I00
S'\xa3`~CU\xbb\x86\xc2'
p4229
tp4230
bsS'ISAGEN SA ESP'
p4231
g2
(g3
(I0
tp4232
g5
tp4233
Rp4234
(I1
(I2
tp4235
g12
I00
S'\xa7\xc2\x83\xc30\xbaY\xc2'
p4236
tp4237
bsS'LIETUVOS ENERGIJOS GAMYBA AB'
p4238
g2
(g3
(I0
tp4239
g5
tp4240
Rp4241
(I1
(I2
tp4242
g12
I00
S'1\xba\x05C\xa9K\x0bB'
p4243
tp4244
bsS'XINJIANG TIANFU THERMOELEC CO'
p4245
g2
(g3
(I0
tp4246
g5
tp4247
Rp4248
(I1
(I2
tp4249
g12
I00
S'\xb5#\x1dC\xc6@.C'
p4250
tp4251
bsS'ACWA POWER DEVELOPMENT'
p4252
g2
(g3
(I0
tp4253
g5
tp4254
Rp4255
(I1
(I2
tp4256
g12
I00
S'\xac`\xd3B\xbf\xb9\xef\xc1'
p4257
tp4258
bsS'DUKE ENERGY OHIO INC'
p4259
g2
(g3
(I0
tp4260
g5
tp4261
Rp4262
(I1
(I2
tp4263
g12
I00
S'\xd2\xc4P\xc3\xc2H\xd9B'
p4264
tp4265
bsS'JSC INTER RAO UES - EPP'
p4266
g2
(g3
(I0
tp4267
g5
tp4268
Rp4269
(I1
(I2
tp4270
g12
I00
S'A\xaa_CI\x0b\x17B'
p4271
tp4272
bsS'ELEC GEN AUTH THAILAND (EGAT)'
p4273
g2
(g3
(I0
tp4274
g5
tp4275
Rp4276
(I1
(I2
tp4277
g12
I00
S'sr}C\x0bW\xea\xc2'
p4278
tp4279
bsS'SAN DIEGO GAS & ELECTRIC CO'
p4280
g2
(g3
(I0
tp4281
g5
tp4282
Rp4283
(I1
(I2
tp4284
g12
I00
S'Q^X\xc3\xa4U\x90B'
p4285
tp4286
bsS'SARAWAK HIDRO SDN BHD'
p4287
g2
(g3
(I0
tp4288
g5
tp4289
Rp4290
(I1
(I2
tp4291
g12
I00
S'\xfb\x05\x9cC\x15\x10\xc5A'
p4292
tp4293
bsS'TPP VARNA EAD'
p4294
g2
(g3
(I0
tp4295
g5
tp4296
Rp4297
(I1
(I2
tp4298
g12
I00
S'\x98}\x03C\xcd\n\xb9B'
p4299
tp4300
bsS'GROSSKRAFTWERK MANNHEIM (GKM)'
p4301
g2
(g3
(I0
tp4302
g5
tp4303
Rp4304
(I1
(I2
tp4305
g12
I00
S'\x1e\x97k\xc2r15\xc2'
p4306
tp4307
bsS'CARLTON POWER LTD'
p4308
g2
(g3
(I0
tp4309
g5
tp4310
Rp4311
(I1
(I2
tp4312
g12
I00
S'\xcd\xc0\x02\xc2\xd8K]\xc2'
p4313
tp4314
bsS'GENESIS ENERGY'
p4315
g2
(g3
(I0
tp4316
g5
tp4317
Rp4318
(I1
(I2
tp4319
g12
I00
S'\xb8\x97\xadC\xe4\xde)\xc3'
p4320
tp4321
bsS'LIGHT-SERVICOS DE ELET SA'
p4322
g2
(g3
(I0
tp4323
g5
tp4324
Rp4325
(I1
(I2
tp4326
g12
I00
S'\xf4\xe8\x14\xc3\x00$\xcf\xc2'
p4327
tp4328
bsS'ELECTRICHESKIYE STANTSII JSC'
p4329
g2
(g3
(I0
tp4330
g5
tp4331
Rp4332
(I1
(I2
tp4333
g12
I00
S'\xb6V\x8aA\x97PmC'
p4334
tp4335
bsS'NHPC LTD'
p4336
g2
(g3
(I0
tp4337
g5
tp4338
Rp4339
(I1
(I2
tp4340
g12
I00
S'4\x0c\xfcB\xe7\xbc;\xc2'
p4341
tp4342
bsS'ES'
p4343
g2
(g3
(I0
tp4344
g5
tp4345
Rp4346
(I1
(I2
tp4347
g12
I00
S'8\xf3o\xc0\xcc\xda!B'
p4348
tp4349
bsS'SSE RENEWABLES LTD'
p4350
g2
(g3
(I0
tp4351
g5
tp4352
Rp4353
(I1
(I2
tp4354
g12
I00
S'\xeb\x9c\x02\xc2\xc9\x1e{\xc1'
p4355
tp4356
bsS'EREN ENERRJ ELEKTRIK URETIM AS'
p4357
g2
(g3
(I0
tp4358
g5
tp4359
Rp4360
(I1
(I2
tp4361
g12
I00
S'\x06\x8c\xca\xc2\xff\x9c\x85\xc2'
p4362
tp4363
bsS'PT'
p4364
g2
(g3
(I0
tp4365
g5
tp4366
Rp4367
(I1
(I2
tp4368
g12
I00
S']\x97\x03\xc1x\x99\x1dB'
p4369
tp4370
bsS'XINJIANG TIANSHAN ALUMINUM IND'
p4371
g2
(g3
(I0
tp4372
g5
tp4373
Rp4374
(I1
(I2
tp4375
g12
I00
S'\xa5\x8f\x04Cn\xb81C'
p4376
tp4377
bsS'COMISION FEDERAL DE ELEC'
p4378
g2
(g3
(I0
tp4379
g5
tp4380
Rp4381
(I1
(I2
tp4382
g12
I00
S'q\xbe\xf2\xc2\xae\xc5\x07C'
p4383
tp4384
bsS'YUNNAN ELECTRIC POWER CO'
p4385
g2
(g3
(I0
tp4386
g5
tp4387
Rp4388
(I1
(I2
tp4389
g12
I00
S'l\xeb C\x0e\x8f\x05C'
p4390
tp4391
bsS'OGLETHORPE POWER CORP'
p4392
g2
(g3
(I0
tp4393
g5
tp4394
Rp4395
(I1
(I2
tp4396
g12
I00
S'\x86;J\xc3L\xb8\xd1B'
p4397
tp4398
bsS'NUCLEOELECTRICA ARGENTINA SA'
p4399
g2
(g3
(I0
tp4400
g5
tp4401
Rp4402
(I1
(I2
tp4403
g12
I00
S'\xf8\t,\xc3\x96\x1bf\xc3'
p4404
tp4405
bsS'JIANGSU HUADIAN JURONG POW CO'
p4406
g2
(g3
(I0
tp4407
g5
tp4408
Rp4409
(I1
(I2
tp4410
g12
I00
S'\xa8\xc7)C(\xe0 C'
p4411
tp4412
bsS'E.ON SVERIGE AB'
p4413
g2
(g3
(I0
tp4414
g5
tp4415
Rp4416
(I1
(I2
tp4417
g12
I00
S'\x00\x0c!\xc2\xc9\xbb@C'
p4418
tp4419
bsS'KP'
p4420
g2
(g3
(I0
tp4421
g5
tp4422
Rp4423
(I1
(I2
tp4424
g12
I00
S'+\x05\xffB\x02\\!B'
p4425
tp4426
bsS'KORP ELEKTROENERG SHQIPETARE'
p4427
g2
(g3
(I0
tp4428
g5
tp4429
Rp4430
(I1
(I2
tp4431
g12
I00
S'\x0b:\xb2\xc1\xf5t\x87C'
p4432
tp4433
bsS'HOKURIKU ELECTRIC POWER CO'
p4434
g2
(g3
(I0
tp4435
g5
tp4436
Rp4437
(I1
(I2
tp4438
g12
I00
S'\xa0\x00\x8cC\xe9\xb7I\xc2'
p4439
tp4440
bsS'PE'
p4441
g2
(g3
(I0
tp4442
g5
tp4443
Rp4444
(I1
(I2
tp4445
g12
I00
S'\xc2\x07\x96\xc2\x1b\n\x13\xc1'
p4446
tp4447
bsS'PK'
p4448
g2
(g3
(I0
tp4449
g5
tp4450
Rp4451
(I1
(I2
tp4452
g12
I00
S'\xb3\xb0\x8aB\xa8\x00\xf3A'
p4453
tp4454
bsS'PH'
p4455
g2
(g3
(I0
tp4456
g5
tp4457
Rp4458
(I1
(I2
tp4459
g12
I00
S'L\x8c\xf3BV\x13NA'
p4460
tp4461
bsS'PL'
p4462
g2
(g3
(I0
tp4463
g5
tp4464
Rp4465
(I1
(I2
tp4466
g12
I00
S'=)\x99A\x81\xadOB'
p4467
tp4468
bsS'FORTUM OYJ'
p4469
g2
(g3
(I0
tp4470
g5
tp4471
Rp4472
(I1
(I2
tp4473
g12
I00
S'~\xe8\xd9\xc2\xb2\x81UC'
p4474
tp4475
bsS'IBERDROLA MEXICO SA DE CV'
p4476
g2
(g3
(I0
tp4477
g5
tp4478
Rp4479
(I1
(I2
tp4480
g12
I00
S'V}\x01\xc3&\x1f\x1dC'
p4481
tp4482
bsS'IGNALINOS ATOMINE ELEKTRINE VI'
p4483
g2
(g3
(I0
tp4484
g5
tp4485
Rp4486
(I1
(I2
tp4487
g12
I00
S'\xca;\x15C\x90\x9dpC'
p4488
tp4489
bsS'SHANDONG ZHONGHUA POWER CO LTD'
p4490
g2
(g3
(I0
tp4491
g5
tp4492
Rp4493
(I1
(I2
tp4494
g12
I00
S'\t*\x1cCO\xa9\nC'
p4495
tp4496
bsS'MAPNA POWER GENERATION CO'
p4497
g2
(g3
(I0
tp4498
g5
tp4499
Rp4500
(I1
(I2
tp4501
g12
I00
S'\xd6\x1fpB\xd0\x9dzC'
p4502
tp4503
bsS'HUANENG JILIN POWER GEN CO LTD'
p4504
g2
(g3
(I0
tp4505
g5
tp4506
Rp4507
(I1
(I2
tp4508
g12
I00
S'\x02\xd9\x00C\x87k$C'
p4509
tp4510
bsS'LUOYANG YUGONG ELECTRIC POWER'
p4511
g2
(g3
(I0
tp4512
g5
tp4513
Rp4514
(I1
(I2
tp4515
g12
I00
S"\xb9N'CpC#C"
p4516
tp4517
bsS'ALINTA ENERGY LTD'
p4518
g2
(g3
(I0
tp4519
g5
tp4520
Rp4521
(I1
(I2
tp4522
g12
I00
S'k\x7f\xc8BlxK\xc3'
p4523
tp4524
bsS'DAMODAR VALLEY CORP (DVC)'
p4525
g2
(g3
(I0
tp4526
g5
tp4527
Rp4528
(I1
(I2
tp4529
g12
I00
S'X\xbc\xf0B!\x90r\xc2'
p4530
tp4531
bsS'FIRSTENERGY GENERATION CORP'
p4532
g2
(g3
(I0
tp4533
g5
tp4534
Rp4535
(I1
(I2
tp4536
g12
I00
S'\x0ec@\xc3/\xaf\xc2B'
p4537
tp4538
bsS'POWEO PRODUCTION SAS'
p4539
g2
(g3
(I0
tp4540
g5
tp4541
Rp4542
(I1
(I2
tp4543
g12
I00
S'(\x84\xc3\xc2\xf1D[B'
p4544
tp4545
bsS'DRUK GREEN POWER CORP LTD'
p4546
g2
(g3
(I0
tp4547
g5
tp4548
Rp4549
(I1
(I2
tp4550
g12
I00
S'\x8f\x1f<C\x93\xbe\x04\xc3'
p4551
tp4552
bsS'ZORLU ENERJI'
p4553
g2
(g3
(I0
tp4554
g5
tp4555
Rp4556
(I1
(I2
tp4557
g12
I00
S'SW\xd3\xc2\xf7\xfdB\xc2'
p4558
tp4559
bsS'HUANENG YIMIN COAL & ELEC CO'
p4560
g2
(g3
(I0
tp4561
g5
tp4562
Rp4563
(I1
(I2
tp4564
g12
I00
S'\xa7\x91\tC\x05\xb8/C'
p4565
tp4566
bsS'KANSAS CITY POWER & LIGHT CO'
p4567
g2
(g3
(I0
tp4568
g5
tp4569
Rp4570
(I1
(I2
tp4571
g12
I00
S'\x86lN\xc3w\xa0\x91B'
p4572
tp4573
bsS'J-POWER'
p4574
g2
(g3
(I0
tp4575
g5
tp4576
Rp4577
(I1
(I2
tp4578
g12
I00
S'\xe1\xf8\x7fC\xf9\x92\x94\xc2'
p4579
tp4580
bsS'STP NUCLEAR OPERATING CO'
p4581
g2
(g3
(I0
tp4582
g5
tp4583
Rp4584
(I1
(I2
tp4585
g12
I00
S'\xf3@Q\xc3\xd1\xcf\xcaB'
p4586
tp4587
bsS'SHAANXI QINGSHUICHUAN ELEC CO'
p4588
g2
(g3
(I0
tp4589
g5
tp4590
Rp4591
(I1
(I2
tp4592
g12
I00
S"\x04l\x19C\x99J'C"
p4593
tp4594
bsS'CA'
p4595
g2
(g3
(I0
tp4596
g5
tp4597
Rp4598
(I1
(I2
tp4599
g12
I00
S'\x8c\xb1\xd4\xc2\x7f\x85`B'
p4600
tp4601
bsS'TOYO INK GROUP BHD'
p4602
g2
(g3
(I0
tp4603
g5
tp4604
Rp4605
(I1
(I2
tp4606
g12
I00
S'\xd9g\x87C\xd3\x18u\xc2'
p4607
tp4608
bsS'LOWER COLORADO RIVER AUTH'
p4609
g2
(g3
(I0
tp4610
g5
tp4611
Rp4612
(I1
(I2
tp4613
g12
I00
S'\xdb\xceY\xc3\xd5\xe4\xbcB'
p4614
tp4615
bsS'MT HOPE HYDRO INC'
p4616
g2
(g3
(I0
tp4617
g5
tp4618
Rp4619
(I1
(I2
tp4620
g12
I00
S'\xbf\xbcg\xc3\xee3\xcbB'
p4621
tp4622
bsS'EMP PROVINCIAL ENERGIA CORDOBA'
p4623
g2
(g3
(I0
tp4624
g5
tp4625
Rp4626
(I1
(I2
tp4627
g12
I00
S'\xca\x17$\xc3\x97\xa8q\xc3'
p4628
tp4629
bsS'POSCO'
p4630
g2
(g3
(I0
tp4631
g5
tp4632
Rp4633
(I1
(I2
tp4634
g12
I00
S'!,\x9aC\x17\xb2\tC'
p4635
tp4636
bsS'BEIJING ENERGY INVEST HOLDING'
p4637
g2
(g3
(I0
tp4638
g5
tp4639
Rp4640
(I1
(I2
tp4641
g12
I00
S'\xdaK\x07C\x90v\x1cC'
p4642
tp4643
bsS'US BUREAU OF RECLAMATION'
p4644
g2
(g3
(I0
tp4645
g5
tp4646
Rp4647
(I1
(I2
tp4648
g12
I00
S'\xe4\x08B\xc3\x02\x8c\xbbB'
p4649
tp4650
bsS'SHAANXI HUADIAN PUCHENG POWER'
p4651
g2
(g3
(I0
tp4652
g5
tp4653
Rp4654
(I1
(I2
tp4655
g12
I00
S'\xc4e C\x1a\xdc0C'
p4656
tp4657
bsS'JIUQUAN IRON AND STEEL GROUP'
p4658
g2
(g3
(I0
tp4659
g5
tp4660
Rp4661
(I1
(I2
tp4662
g12
I00
S'\xa7$\x15C\xac\x1e.C'
p4663
tp4664
bsS'SUZLON ENERGY LTD'
p4665
g2
(g3
(I0
tp4666
g5
tp4667
Rp4668
(I1
(I2
tp4669
g12
I00
S'\xa1\x18\xe6BJs\xbf\xc2'
p4670
tp4671
bsS'SOUTHERN NUCLEAR OPERATING CO'
p4672
g2
(g3
(I0
tp4673
g5
tp4674
Rp4675
(I1
(I2
tp4676
g12
I00
S'\xf2\xbeE\xc3\x88\xfc\xc7B'
p4677
tp4678
bsS'AKALTARA POWER PROJECT'
p4679
g2
(g3
(I0
tp4680
g5
tp4681
Rp4682
(I1
(I2
tp4683
g12
I00
S'\xae\xc5\x17C\x94\xb4d\xc2'
p4684
tp4685
bsS'CENTRENERGO'
p4686
g2
(g3
(I0
tp4687
g5
tp4688
Rp4689
(I1
(I2
tp4690
g12
I00
S'\xf2\x96`C\xbe\xfco\xc0'
p4691
tp4692
bsS'NORTH UNITED POWER CO LTD'
p4693
g2
(g3
(I0
tp4694
g5
tp4695
Rp4696
(I1
(I2
tp4697
g12
I00
S'\x7f \x07C\x9e\xbf\x14C'
p4698
tp4699
bsS'FORTUM POWER AND HEAT AB'
p4700
g2
(g3
(I0
tp4701
g5
tp4702
Rp4703
(I1
(I2
tp4704
g12
I00
S'c\xa7N\xc21\xc8=C'
p4705
tp4706
bsS'KHUZESTAN REGIONAL ELECTRIC CO'
p4707
g2
(g3
(I0
tp4708
g5
tp4709
Rp4710
(I1
(I2
tp4711
g12
I00
S'\x11\xf6_B\xf7\xb3\x84C'
p4712
tp4713
bsS'BIHAR STATE POWER HOLDING CO L'
p4714
g2
(g3
(I0
tp4715
g5
tp4716
Rp4717
(I1
(I2
tp4718
g12
I00
S'\xa6\xf0"C\x17\x12f\xc2'
p4719
tp4720
bsS'DUBAI ALUMINIUM CO (DUBAL)'
p4721
g2
(g3
(I0
tp4722
g5
tp4723
Rp4724
(I1
(I2
tp4725
g12
I00
S'\x9fs(C\x93\xdb@\xc3'
p4726
tp4727
bsS'HUADIAN SHAANXI ENERGY CO'
p4728
g2
(g3
(I0
tp4729
g5
tp4730
Rp4731
(I1
(I2
tp4732
g12
I00
S'\x9c4\x1eCi0\x19C'
p4733
tp4734
bsS'INDIAN RAILWAYS'
p4735
g2
(g3
(I0
tp4736
g5
tp4737
Rp4738
(I1
(I2
tp4739
g12
I00
S'.\x89"C\x95\xe4\x95\xc2'
p4740
tp4741
bsS'KOREA ELECTRIC POWER CORP'
p4742
g2
(g3
(I0
tp4743
g5
tp4744
Rp4745
(I1
(I2
tp4746
g12
I00
S'2\xaf\x9cC\x98\x85\xfdB'
p4747
tp4748
bsS'AGL ENERGY LTD'
p4749
g2
(g3
(I0
tp4750
g5
tp4751
Rp4752
(I1
(I2
tp4753
g12
I00
S'\xc8\x8c\xf6Ba\x0c8\xc3'
p4754
tp4755
bsS'QUADRA (TGC-04)'
p4756
g2
(g3
(I0
tp4757
g5
tp4758
Rp4759
(I1
(I2
tp4760
g12
I00
S'\xc50|C\xc4\xe6\x08B'
p4761
tp4762
bsS'KHORASAN REGIONAL ELEC POWER'
p4763
g2
(g3
(I0
tp4764
g5
tp4765
Rp4766
(I1
(I2
tp4767
g12
I00
S'&&KB\xad\x93|C'
p4768
tp4769
bsS'SAMRUK-KAZYNA JSC'
p4770
g2
(g3
(I0
tp4771
g5
tp4772
Rp4773
(I1
(I2
tp4774
g12
I00
S'F!\xc9BWX`C'
p4775
tp4776
bsS'CHINA RESOURCES POWER HOLDINGS'
p4777
g2
(g3
(I0
tp4778
g5
tp4779
Rp4780
(I1
(I2
tp4781
g12
I00
S'Co\x03C\x19\xe2\x14C'
p4782
tp4783
bsS'POWERWORKS LLC'
p4784
g2
(g3
(I0
tp4785
g5
tp4786
Rp4787
(I1
(I2
tp4788
g12
I00
S'\xe4\x10f\xc3\x90\n\xd2B'
p4789
tp4790
bsS'TAMIL NADU GEN & DIST CORP LTD'
p4791
g2
(g3
(I0
tp4792
g5
tp4793
Rp4794
(I1
(I2
tp4795
g12
I00
S'\x07H\rC\xcc\xf0+\xc2'
p4796
tp4797
bsS'HORIZON NUCLEAR POWER LTD'
p4798
g2
(g3
(I0
tp4799
g5
tp4800
Rp4801
(I1
(I2
tp4802
g12
I00
S'{\x10&\xbfny;\xc2'
p4803
tp4804
bsS'RE'
p4805
g2
(g3
(I0
tp4806
g5
tp4807
Rp4808
(I1
(I2
tp4809
g12
I00
S'B%^B\xcf\xeb\xa8\xc1'
p4810
tp4811
bsS'ENERGYAUSTRALIA PTY LTD'
p4812
g2
(g3
(I0
tp4813
g5
tp4814
Rp4815
(I1
(I2
tp4816
g12
I00
S'\n\x88\xe3B\xe2^:\xc3'
p4817
tp4818
bsS'SAMRUK-ENERGO JSC'
p4819
g2
(g3
(I0
tp4820
g5
tp4821
Rp4822
(I1
(I2
tp4823
g12
I00
S'\xd6\xaa\tC\x0fH\xb4B'
p4824
tp4825
bsS'RATNAGIRI GAS & POWER PVT LTD'
p4826
g2
(g3
(I0
tp4827
g5
tp4828
Rp4829
(I1
(I2
tp4830
g12
I00
S'\x87\x0c$C1\xfd\x88\xc2'
p4831
tp4832
bsS'KUWAIT IWPP'
p4833
g2
(g3
(I0
tp4834
g5
tp4835
Rp4836
(I1
(I2
tp4837
g12
I00
S"\xc4\xdau\xc2r'\x8aB"
p4838
tp4839
bsS'NEW YORK POWER AUTHORITY'
p4840
g2
(g3
(I0
tp4841
g5
tp4842
Rp4843
(I1
(I2
tp4844
g12
I00
S'\xe3\xb2N\xc3@4\xc0B'
p4845
tp4846
bsS'INTERGEN (UK) LTD'
p4847
g2
(g3
(I0
tp4848
g5
tp4849
Rp4850
(I1
(I2
tp4851
g12
I00
S'1\xda\xbd\xc2j\xdf"\xc2'
p4852
tp4853
bsS'ENTERGY INTERNATIONAL HOLDINGS'
p4854
g2
(g3
(I0
tp4855
g5
tp4856
Rp4857
(I1
(I2
tp4858
g12
I00
S'u\xa1\xc6\xc2\xf9?\xc9\xc2'
p4859
tp4860
bsS'CHINA POWER INTL DEV LTD'
p4861
g2
(g3
(I0
tp4862
g5
tp4863
Rp4864
(I1
(I2
tp4865
g12
I00
S'D\xa3\x10C\xe3\xe4\rC'
p4866
tp4867
bsS'IR'
p4868
g2
(g3
(I0
tp4869
g5
tp4870
Rp4871
(I1
(I2
tp4872
g12
I00
S'\x8f\xc0VB.\xb6\x01B'
p4873
tp4874
bsS'HUANENG SICHUAN HYDRO CO LTD'
p4875
g2
(g3
(I0
tp4876
g5
tp4877
Rp4878
(I1
(I2
tp4879
g12
I00
S'iD%C\x80\xd5%C'
p4880
tp4881
bsS'CH'
p4882
g2
(g3
(I0
tp4883
g5
tp4884
Rp4885
(I1
(I2
tp4886
g12
I00
S'\xe4\xa3\x03A\xd3E;B'
p4887
tp4888
bsS'NING LONG POWER GENERATING CO'
p4889
g2
(g3
(I0
tp4890
g5
tp4891
Rp4892
(I1
(I2
tp4893
g12
I00
S'\xe7\xbe"Ce`+C'
p4894
tp4895
bsS'CN'
p4896
g2
(g3
(I0
tp4897
g5
tp4898
Rp4899
(I1
(I2
tp4900
g12
I00
S'\x0bd\xd0BWr\x0fB'
p4901
tp4902
bsS'NORTH-WEST POWER GENERATION CO'
p4903
g2
(g3
(I0
tp4904
g5
tp4905
Rp4906
(I1
(I2
tp4907
g12
I00
S'\xd0\xa6iC\r\x8c\x06C'
p4908
tp4909
bsS'CL'
p4910
g2
(g3
(I0
tp4911
g5
tp4912
Rp4913
(I1
(I2
tp4914
g12
I00
S'\x00\x16\x8f\xc2Z\xb3\x0e\xc2'
p4915
tp4916
bsS'STATKRAFT AS'
p4917
g2
(g3
(I0
tp4918
g5
tp4919
Rp4920
(I1
(I2
tp4921
g12
I00
S'|\x81b\xc1\xe8\x94\x08C'
p4922
tp4923
bsS'MINISTRY ELECTRIC POWER (MM)'
p4924
g2
(g3
(I0
tp4925
g5
tp4926
Rp4927
(I1
(I2
tp4928
g12
I00
S'\x00(\x11C\x99Q\xba?'
p4929
tp4930
bsS'TAWEELAH-C PROJECT'
p4931
g2
(g3
(I0
tp4932
g5
tp4933
Rp4934
(I1
(I2
tp4935
g12
I00
S'm\xdb\rC?\x803\xc3'
p4936
tp4937
bsS'DATANG GANDIAN'
p4938
g2
(g3
(I0
tp4939
g5
tp4940
Rp4941
(I1
(I2
tp4942
g12
I00
S'\xcar\x1dC\xfa\xed&C'
p4943
tp4944
bsS'KSK ENERGY VENTURES PVT LTD'
p4945
g2
(g3
(I0
tp4946
g5
tp4947
Rp4948
(I1
(I2
tp4949
g12
I00
S'YU\x07C\xb9\x0b\x8b\xc2'
p4950
tp4951
bsS'CZ'
p4952
g2
(g3
(I0
tp4953
g5
tp4954
Rp4955
(I1
(I2
tp4956
g12
I00
S'A\x91wA\x1dEGB'
p4957
tp4958
bsS'CY'
p4959
g2
(g3
(I0
tp4960
g5
tp4961
Rp4962
(I1
(I2
tp4963
g12
I00
S'-\xb8\x05Br\x81\x0cB'
p4964
tp4965
bsS'FDC UTILITIES'
p4966
g2
(g3
(I0
tp4967
g5
tp4968
Rp4969
(I1
(I2
tp4970
g12
I00
S'\xde\x9f\x16C\x15\x00=B'
p4971
tp4972
bsS'DOMINION GENERATION'
p4973
g2
(g3
(I0
tp4974
g5
tp4975
Rp4976
(I1
(I2
tp4977
g12
I00
S'\xea\x9aK\xc3\xe7\x92\xb2B'
p4978
tp4979
bsS'MVM PAKSI ATOMEROMU ZRT'
p4980
g2
(g3
(I0
tp4981
g5
tp4982
Rp4983
(I1
(I2
tp4984
g12
I00
S'5\x7f\x85\xc2\x17a\xb9B'
p4985
tp4986
bsS'ENEA WYTWARZANIE SA'
p4987
g2
(g3
(I0
tp4988
g5
tp4989
Rp4990
(I1
(I2
tp4991
g12
I00
S'\xae\xd7\xb7\xc2S\x93\x01C'
p4992
tp4993
bsS'CR'
p4994
g2
(g3
(I0
tp4995
g5
tp4996
Rp4997
(I1
(I2
tp4998
g12
I00
S'\xc1\x81\xa7\xc2\x90\xfb\x1bA'
p4999
tp5000
bsS'DATANG HEILONGJIANG POWER GEN'
p5001
g2
(g3
(I0
tp5002
g5
tp5003
Rp5004
(I1
(I2
tp5005
g12
I00
S'mH\x06Co^.C'
p5006
tp5007
bsS'ASOC NUCLEAR ASCO-VANDELLOS II'
p5008
g2
(g3
(I0
tp5009
g5
tp5010
Rp5011
(I1
(I2
tp5012
g12
I00
S'\xb9\xe6\xe4\xc2\xaf\xed\xb2@'
p5013
tp5014
bsS'CU'
p5015
g2
(g3
(I0
tp5016
g5
tp5017
Rp5018
(I1
(I2
tp5019
g12
I00
S'\xf5\x8f\x9b\xc2\x8f,\xacA'
p5020
tp5021
bsS'TAIWAN COGENERATION CORP'
p5022
g2
(g3
(I0
tp5023
g5
tp5024
Rp5025
(I1
(I2
tp5026
g12
I00
S'\x15\xba\xa7CN\xc7\xce\xc1'
p5027
tp5028
bsS'ATOMIC ENERGY ORGANIZ IRAN'
p5029
g2
(g3
(I0
tp5030
g5
tp5031
Rp5032
(I1
(I2
tp5033
g12
I00
S'`\xc8\x1eB\xe1\xfc}C'
p5034
tp5035
bsS'E.ON KRAFTWERKE GMBH'
p5036
g2
(g3
(I0
tp5037
g5
tp5038
Rp5039
(I1
(I2
tp5040
g12
I00
S'\x81\xff{\xc2\xcbjh\xc1'
p5041
tp5042
bsS'NORTHEAST NUCLEAR ENERGY'
p5043
g2
(g3
(I0
tp5044
g5
tp5045
Rp5046
(I1
(I2
tp5047
g12
I00
S'\x08JL\xc3\n\xfa\xe3B'
p5048
tp5049
bsS'SUNFLOWER ELECTRIC COOP'
p5050
g2
(g3
(I0
tp5051
g5
tp5052
Rp5053
(I1
(I2
tp5054
g12
I00
S'\x10\x82Q\xc3\xa28\xd2B'
p5055
tp5056
bsS'SOMA KYODO POWER CO'
p5057
g2
(g3
(I0
tp5058
g5
tp5059
Rp5060
(I1
(I2
tp5061
g12
I00
S'\xa3\x06\x8dC\xb4C\xb4\xc2'
p5062
tp5063
bsS'GUIZHOU QIANYUAN POWER  CO LTD'
p5064
g2
(g3
(I0
tp5065
g5
tp5066
Rp5067
(I1
(I2
tp5068
g12
I00
S'\xdb\xce\x0bC/\xfc+C'
p5069
tp5070
bsS'NORTE ENERGIA SA'
p5071
g2
(g3
(I0
tp5072
g5
tp5073
Rp5074
(I1
(I2
tp5075
g12
I00
S'$\xc5!\xc3*n\xdb\xc2'
p5076
tp5077
bsS'PACIFICORP'
p5078
g2
(g3
(I0
tp5079
g5
tp5080
Rp5081
(I1
(I2
tp5082
g12
I00
S'\xec\xebC\xc3\xcf\x87\xc1B'
p5083
tp5084
bsS'OGK-2 (SECOND GENERATION CO)'
p5085
g2
(g3
(I0
tp5086
g5
tp5087
Rp5088
(I1
(I2
tp5089
g12
I00
S'\x8a\xec\x89CQ\xb8kB'
p5090
tp5091
bsS'CD'
p5092
g2
(g3
(I0
tp5093
g5
tp5094
Rp5095
(I1
(I2
tp5096
g12
I00
S'\xbe\x11\xaeA\x06:\x81\xc0'
p5097
tp5098
bsS'NUON NV'
p5099
g2
(g3
(I0
tp5100
g5
tp5101
Rp5102
(I1
(I2
tp5103
g12
I00
S'\xcc\x16\x93\xc2\x91Z\xec\xc2'
p5104
tp5105
bsS'BEIJING SANJILI ENERGY CO LTD'
p5106
g2
(g3
(I0
tp5107
g5
tp5108
Rp5109
(I1
(I2
tp5110
g12
I00
S'h;\x0bC\xb3\x1a\x1cC'
p5111
tp5112
bsS'ENERGIE AG OBEROSTERREICH'
p5113
g2
(g3
(I0
tp5114
g5
tp5115
Rp5116
(I1
(I2
tp5117
g12
I00
S'i\xe5\x98B>S\x1e\xc3'
p5118
tp5119
bsS'YALONGJIANG HYDROPOWER DEV CO'
p5120
g2
(g3
(I0
tp5121
g5
tp5122
Rp5123
(I1
(I2
tp5124
g12
I00
S'\xb6+\x04Ct\xa9\x18C'
p5125
tp5126
bsS'MP POWER GENERATING CO LTD'
p5127
g2
(g3
(I0
tp5128
g5
tp5129
Rp5130
(I1
(I2
tp5131
g12
I00
S'\x8bK\x06C\xf0Co\xc2'
p5132
tp5133
bsS'PUGET SOUND POWER & LIGHT CO'
p5134
g2
(g3
(I0
tp5135
g5
tp5136
Rp5137
(I1
(I2
tp5138
g12
I00
S'\x84Tf\xc3\xb7f\xb9B'
p5139
tp5140
bsS'GEORGIA POWER CO'
p5141
g2
(g3
(I0
tp5142
g5
tp5143
Rp5144
(I1
(I2
tp5145
g12
I00
S'\nu=\xc3\xf6\xbe\xb4B'
p5146
tp5147
bsS'WESTERN FARMERS ELEC COOP (OK)'
p5148
g2
(g3
(I0
tp5149
g5
tp5150
Rp5151
(I1
(I2
tp5152
g12
I00
S'&`f\xc3\x84|\xbfB'
p5153
tp5154
bsS'OAO KRASNOYARSK HPS'
p5155
g2
(g3
(I0
tp5156
g5
tp5157
Rp5158
(I1
(I2
tp5159
g12
I00
S'x\x88oC_D(B'
p5160
tp5161
bsS'TGC-05 (TERRITORIAL GEN CO 5)'
p5162
g2
(g3
(I0
tp5163
g5
tp5164
Rp5165
(I1
(I2
tp5166
g12
I00
S'\x85?\x92C\xc5\x89\x80B'
p5167
tp5168
bsS'SALT RIVER PROJECT (AZ)'
p5169
g2
(g3
(I0
tp5170
g5
tp5171
Rp5172
(I1
(I2
tp5173
g12
I00
S'n\x8b@\xc3\xf1\xce\x97B'
p5174
tp5175
bsS'FUJIAN HONGSHAN THERMAL POWER'
p5176
g2
(g3
(I0
tp5177
g5
tp5178
Rp5179
(I1
(I2
tp5180
g12
I00
S'\xac\x0c\x06CA\x19(C'
p5181
tp5182
bsS'GRIDFLEX ENERGY LLC'
p5183
g2
(g3
(I0
tp5184
g5
tp5185
Rp5186
(I1
(I2
tp5187
g12
I00
S'4\xb4c\xc3\xe5\xd6\xd8B'
p5188
tp5189
bsS'CHEUNG KONG INFRASTRUCTURE'
p5190
g2
(g3
(I0
tp5191
g5
tp5192
Rp5193
(I1
(I2
tp5194
g12
I00
S'B\xfe&C\x02\xb8\x1eC'
p5195
tp5196
bsS'OJSC ENEL OGK-5'
p5197
g2
(g3
(I0
tp5198
g5
tp5199
Rp5200
(I1
(I2
tp5201
g12
I00
S'\xad\xac\x8cC\x91\x83TB'
p5202
tp5203
bsS'ENTERGY ARKANSAS INC'
p5204
g2
(g3
(I0
tp5205
g5
tp5206
Rp5207
(I1
(I2
tp5208
g12
I00
S'\xb3\x1dJ\xc3\xb8\xb2\xc9B'
p5209
tp5210
bsS'ESSENT NV'
p5211
g2
(g3
(I0
tp5212
g5
tp5213
Rp5214
(I1
(I2
tp5215
g12
I00
S'h^\x80\xc2\x1b\xf9\xe8\xc2'
p5216
tp5217
bsS'KOREA MIDLAND POWER (KOMIPO)'
p5218
g2
(g3
(I0
tp5219
g5
tp5220
Rp5221
(I1
(I2
tp5222
g12
I00
S't\xb9\x91C\x98\xc4\xf6B'
p5223
tp5224
bsS'JUSTWIND LLC'
p5225
g2
(g3
(I0
tp5226
g5
tp5227
Rp5228
(I1
(I2
tp5229
g12
I00
S'\x0b\xe5c\xc3\xabQ\x8cB'
p5230
tp5231
bsS'EDP PRODUCAO'
p5232
g2
(g3
(I0
tp5233
g5
tp5234
Rp5235
(I1
(I2
tp5236
g12
I00
S'\x07a\x15\xc3\xbd\xfb2\xc2'
p5237
tp5238
bsS'MANITOBA HYDRO'
p5239
g2
(g3
(I0
tp5240
g5
tp5241
Rp5242
(I1
(I2
tp5243
g12
I00
S'\xf7k\x8c\xc3\xb7i\xb9B'
p5244
tp5245
bsS'RELIANCE POWER LTD'
p5246
g2
(g3
(I0
tp5247
g5
tp5248
Rp5249
(I1
(I2
tp5250
g12
I00
S'\xbbe\x0fCt\xf12B'
p5251
tp5252
bsS'POWER SECTOR A&L MGMT CORP'
p5253
g2
(g3
(I0
tp5254
g5
tp5255
Rp5256
(I1
(I2
tp5257
g12
I00
S'W\xd1\xf6B\xccNnB'
p5258
tp5259
bsS'COMMONWEALTH EDISON CO'
p5260
g2
(g3
(I0
tp5261
g5
tp5262
Rp5263
(I1
(I2
tp5264
g12
I00
S'\x14\xa3U\xc3\x16O\x84B'
p5265
tp5266
bsS'UNION ELECTRICA (UNE)'
p5267
g2
(g3
(I0
tp5268
g5
tp5269
Rp5270
(I1
(I2
tp5271
g12
I00
S'\xe2o\x81\xc3\x16!\xbb\xc2'
p5272
tp5273
bsS'CPI JILIN POWER SHARE CO LTD'
p5274
g2
(g3
(I0
tp5275
g5
tp5276
Rp5277
(I1
(I2
tp5278
g12
I00
S'&{\x1eCV\xe8\x1fC'
p5279
tp5280
bsS'PLTU JAWA-5&6'
p5281
g2
(g3
(I0
tp5282
g5
tp5283
Rp5284
(I1
(I2
tp5285
g12
I00
S'ADBB\x84\xe8\xdf\xc2'
p5286
tp5287
bsS'TOPAZ POWER GROUP LLC'
p5288
g2
(g3
(I0
tp5289
g5
tp5290
Rp5291
(I1
(I2
tp5292
g12
I00
S'\xe0.\\\xc3Aw\x86B'
p5293
tp5294
bsS'NATIONAL ELEC CORP (NEC)'
p5295
g2
(g3
(I0
tp5296
g5
tp5297
Rp5298
(I1
(I2
tp5299
g12
I00
S'\x860\xe6B5gY\xc3'
p5300
tp5301
bsS'ZESA HOLDINGS (PVT) LTD'
p5302
g2
(g3
(I0
tp5303
g5
tp5304
Rp5305
(I1
(I2
tp5306
g12
I00
S'\x16lfC\x86\x02\r\xc3'
p5307
tp5308
bsS'CESC LTD'
p5309
g2
(g3
(I0
tp5310
g5
tp5311
Rp5312
(I1
(I2
tp5313
g12
I00
S'\x19\\\xfeB=\x92\x9f\xc2'
p5314
tp5315
bsS'COVANTA ENERGY CORP'
p5316
g2
(g3
(I0
tp5317
g5
tp5318
Rp5319
(I1
(I2
tp5320
g12
I00
S'\xbf\xbag\xc3\xfc\x18\xa3B'
p5321
tp5322
bsS'SHANDONG WEIQIAO ALUM & POW'
p5323
g2
(g3
(I0
tp5324
g5
tp5325
Rp5326
(I1
(I2
tp5327
g12
I00
S' \xaf)Cyx\x10C'
p5328
tp5329
bsS'INNER MONGOLIA MENG HUANENG'
p5330
g2
(g3
(I0
tp5331
g5
tp5332
Rp5333
(I1
(I2
tp5334
g12
I00
S'\xf1\x10&C\xda\xda\tC'
p5335
tp5336
bsS'CE OLTENIA COMPLEXUL ENERGETIC'
p5337
g2
(g3
(I0
tp5338
g5
tp5339
Rp5340
(I1
(I2
tp5341
g12
I00
S'MH+\xc1+d`C'
p5342
tp5343
bsS'DUKE ENERGY PROGRESS'
p5344
g2
(g3
(I0
tp5345
g5
tp5346
Rp5347
(I1
(I2
tp5348
g12
I00
S'\xd9\x1dB\xc3\xb2b\xacB'
p5349
tp5350
bsS'NORTHERN POWER GEN CO LTD'
p5351
g2
(g3
(I0
tp5352
g5
tp5353
Rp5354
(I1
(I2
tp5355
g12
I00
S'} 5C\xeb\xc3UB'
p5356
tp5357
bsS'EMIRATES NUCLEAR ENERGY CORP'
p5358
g2
(g3
(I0
tp5359
g5
tp5360
Rp5361
(I1
(I2
tp5362
g12
I00
S',\x87\x1dCD\xff,\xc3'
p5363
tp5364
bsS'PETROLEOS MEXICANOS (PEMEX)'
p5365
g2
(g3
(I0
tp5366
g5
tp5367
Rp5368
(I1
(I2
tp5369
g12
I00
S'|\xc9\x0f\xc3\xe7q)C'
p5370
tp5371
bsS'ENERGY CAPITAL PARTNERS'
p5372
g2
(g3
(I0
tp5373
g5
tp5374
Rp5375
(I1
(I2
tp5376
g12
I00
S'\xd39U\xc3/\xcb\x97B'
p5377
tp5378
bsS'ARABIAN POWER CO'
p5379
g2
(g3
(I0
tp5380
g5
tp5381
Rp5382
(I1
(I2
tp5383
g12
I00
S'$\xb6\x1eC\xa8%<\xc3'
p5384
tp5385
bsS'JSC MOLDAVIAN GRES'
p5386
g2
(g3
(I0
tp5387
g5
tp5388
Rp5389
(I1
(I2
tp5390
g12
I00
S'\x9d\x14 \xc3\xc5\xf6\x94\xc2'
p5391
tp5392
bsS'ENBW KERNKRAFT GMBH'
p5393
g2
(g3
(I0
tp5394
g5
tp5395
Rp5396
(I1
(I2
tp5397
g12
I00
S"\x89x\x88\xc2'\x0b\xdf\xc1"
p5398
tp5399
bsS'ARKANSAS ELEC COOP CORP'
p5400
g2
(g3
(I0
tp5401
g5
tp5402
Rp5403
(I1
(I2
tp5404
g12
I00
S'\x0fnQ\xc3N\xe1tB'
p5405
tp5406
bsS'ENERGY NORTHWEST'
p5407
g2
(g3
(I0
tp5408
g5
tp5409
Rp5410
(I1
(I2
tp5411
g12
I00
S'\xa9\xcdb\xc3)\xe8\xd2B'
p5412
tp5413
bsS'BAKHTAR REGIONAL ELEC POWER CO'
p5414
g2
(g3
(I0
tp5415
g5
tp5416
Rp5417
(I1
(I2
tp5418
g12
I00
S'\xa9A4B\x8c\x95\x85C'
p5419
tp5420
bsS'CON EDISON CO OF NY INC'
p5421
g2
(g3
(I0
tp5422
g5
tp5423
Rp5424
(I1
(I2
tp5425
g12
I00
S'gsU\xc3,\xd6\xb7B'
p5426
tp5427
bsS'GUIZHOU POWER GEN CO LTD'
p5428
g2
(g3
(I0
tp5429
g5
tp5430
Rp5431
(I1
(I2
tp5432
g12
I00
S'\tU+C\x7f\xab\x13C'
p5433
tp5434
bsS'UNION ENERGY (CHINA) CO'
p5435
g2
(g3
(I0
tp5436
g5
tp5437
Rp5438
(I1
(I2
tp5439
g12
I00
S'\xe9\x83\x16C\xff#5C'
p5440
tp5441
bsS'HUAIHU COAL ELECTRICITY CO LTD'
p5442
g2
(g3
(I0
tp5443
g5
tp5444
Rp5445
(I1
(I2
tp5446
g12
I00
S'\x9b#%C+?\rC'
p5447
tp5448
bsS'SANTO ANTONIO ENERGIA'
p5449
g2
(g3
(I0
tp5450
g5
tp5451
Rp5452
(I1
(I2
tp5453
g12
I00
S'\xb4;\x15\xc3\x9a\xfc\xbf\xc2'
p5454
tp5455
bsS'DATANG INTL FUZHOU POWER JV'
p5456
g2
(g3
(I0
tp5457
g5
tp5458
Rp5459
(I1
(I2
tp5460
g12
I00
S'\x07P\x1dC\x80*2C'
p5461
tp5462
bsS'ENERGY INVESTORS FUNDS LLC'
p5463
g2
(g3
(I0
tp5464
g5
tp5465
Rp5466
(I1
(I2
tp5467
g12
I00
S'\x8bNe\xc3]>\x92B'
p5468
tp5469
bsS'IQ'
p5470
g2
(g3
(I0
tp5471
g5
tp5472
Rp5473
(I1
(I2
tp5474
g12
I00
S'\x98\xb7.B\x8c\xe4\x04B'
p5475
tp5476
bsS'IS'
p5477
g2
(g3
(I0
tp5478
g5
tp5479
Rp5480
(I1
(I2
tp5481
g12
I00
S'\xac*\x98\xc1\x15\xed\x81B'
p5482
tp5483
bsS'HINDALCO INDUSTRIES LTD'
p5484
g2
(g3
(I0
tp5485
g5
tp5486
Rp5487
(I1
(I2
tp5488
g12
I00
S'\xad\xb5\x0fC~\x97{\xc2'
p5489
tp5490
bsS'IT'
p5491
g2
(g3
(I0
tp5492
g5
tp5493
Rp5494
(I1
(I2
tp5495
g12
I00
S"\xfd\x13IA\xde|'B"
p5496
tp5497
bsS'VN'
p5498
g2
(g3
(I0
tp5499
g5
tp5500
Rp5501
(I1
(I2
tp5502
g12
I00
S'\xed\x8d\xd8B\xe5\xee`A'
p5503
tp5504
bsS'CLECO POWER LLC'
p5505
g2
(g3
(I0
tp5506
g5
tp5507
Rp5508
(I1
(I2
tp5509
g12
I00
S's\xe4I\xc3*m\x87B'
p5510
tp5511
bsS'CHINA POWER INVESTMENT CORP'
p5512
g2
(g3
(I0
tp5513
g5
tp5514
Rp5515
(I1
(I2
tp5516
g12
I00
S'\xb3\x13\tC\xee\x0f\x0cC'
p5517
tp5518
bsS'GADANI POWER PARK MGMT CO'
p5519
g2
(g3
(I0
tp5520
g5
tp5521
Rp5522
(I1
(I2
tp5523
g12
I00
S'\xb3F;C\x91>\nB'
p5524
tp5525
bsS'MORAY OFFSHORE RENEWABLES LTD'
p5526
g2
(g3
(I0
tp5527
g5
tp5528
Rp5529
(I1
(I2
tp5530
g12
I00
S'\xcd\xfc?\xc1\xdc\xb0\x86\xc2'
p5531
tp5532
bsS'OAO NTEK'
p5533
g2
(g3
(I0
tp5534
g5
tp5535
Rp5536
(I1
(I2
tp5537
g12
I00
S'\xf9\xb4\x95C\xb3f\\B'
p5538
tp5539
bsS'HOKKAIDO ELECTRIC POWER CO INC'
p5540
g2
(g3
(I0
tp5541
g5
tp5542
Rp5543
(I1
(I2
tp5544
g12
I00
S'=)\x89C\x1a\xe0\x88\xc2'
p5545
tp5546
bsS'MIDWEST GENERATION EME LLC'
p5547
g2
(g3
(I0
tp5548
g5
tp5549
Rp5550
(I1
(I2
tp5551
g12
I00
S'\xbf\xc8M\xc3\xa2\x13\xd0B'
p5552
tp5553
bsS'TENAGA NASIONAL BERHAD (TNB)'
p5554
g2
(g3
(I0
tp5555
g5
tp5556
Rp5557
(I1
(I2
tp5558
g12
I00
S'\xbd7\x8fC\xcaF\xae@'
p5559
tp5560
bsS'ID'
p5561
g2
(g3
(I0
tp5562
g5
tp5563
Rp5564
(I1
(I2
tp5565
g12
I00
S'\xb8\xd7\xe3B\xed\rJ\xbf'
p5566
tp5567
bsS'NCC POWER PROJECTS PVT LTD'
p5568
g2
(g3
(I0
tp5569
g5
tp5570
Rp5571
(I1
(I2
tp5572
g12
I00
S'&\xb9\x19C0[\x86\xc2'
p5573
tp5574
bsS'NHDC LTD'
p5575
g2
(g3
(I0
tp5576
g5
tp5577
Rp5578
(I1
(I2
tp5579
g12
I00
S'L\xe4\x00C\x01`\xb3\xc2'
p5580
tp5581
bsS'RELIANCE INDUSTRIES LTD (RIL)'
p5582
g2
(g3
(I0
tp5583
g5
tp5584
Rp5585
(I1
(I2
tp5586
g12
I00
S'\xccp\x0eC\x14\x14\xba\xc2'
p5587
tp5588
bsS'RENU POWER LLC'
p5589
g2
(g3
(I0
tp5590
g5
tp5591
Rp5592
(I1
(I2
tp5593
g12
I00
S'_1^\xc3l)\xe0B'
p5594
tp5595
bsS'NATIONAL ATOMIC CO KAZATOMPROM'
p5596
g2
(g3
(I0
tp5597
g5
tp5598
Rp5599
(I1
(I2
tp5600
g12
I00
S'Dt7C\xeb\x95jC'
p5601
tp5602
bsS'ENERGOATOM'
p5603
g2
(g3
(I0
tp5604
g5
tp5605
Rp5606
(I1
(I2
tp5607
g12
I00
S'\xc4\x05jC\x0c\xf0EB'
p5608
tp5609
bsS'ELEC GEN PUBLIC CO (EGCO)'
p5610
g2
(g3
(I0
tp5611
g5
tp5612
Rp5613
(I1
(I2
tp5614
g12
I00
S'X\x81\x8aCE\xd4\x03\xc3'
p5615
tp5616
bsS'NINGXIA ELEC POWER GROUP CO'
p5617
g2
(g3
(I0
tp5618
g5
tp5619
Rp5620
(I1
(I2
tp5621
g12
I00
S'\xd0`\xf1B\xd7\x03&C'
p5622
tp5623
bsS'EMP PUBLICAS MEDELLIN (EPM)'
p5624
g2
(g3
(I0
tp5625
g5
tp5626
Rp5627
(I1
(I2
tp5628
g12
I00
S'\xfcZ\x8c\xc3\xe3\x9d\xc4A'
p5629
tp5630
bsS'SHANXI SYNERGY POWER GEN CO'
p5631
g2
(g3
(I0
tp5632
g5
tp5633
Rp5634
(I1
(I2
tp5635
g12
I00
S'\xf4e!C\xdeQ\x0bC'
p5636
tp5637
bsS'MX'
p5638
g2
(g3
(I0
tp5639
g5
tp5640
Rp5641
(I1
(I2
tp5642
g12
I00
S'\x07\x1b\xcd\xc2u\x13\xbdA'
p5643
tp5644
bsS'MZ'
p5645
g2
(g3
(I0
tp5646
g5
tp5647
Rp5648
(I1
(I2
tp5649
g12
I00
S'F\x1e\x0eBXS\x95\xc1'
p5650
tp5651
bsS'BD'
p5652
g2
(g3
(I0
tp5653
g5
tp5654
Rp5655
(I1
(I2
tp5656
g12
I00
S'q\xb6\xb4B\xdez\xbdA'
p5657
tp5658
bsS'BE'
p5659
g2
(g3
(I0
tp5660
g5
tp5661
Rp5662
(I1
(I2
tp5663
g12
I00
S'\xb7\t\x8f@\xfb\x03JB'
p5664
tp5665
bsS'VIDEOCON POWER LTD'
p5666
g2
(g3
(I0
tp5667
g5
tp5668
Rp5669
(I1
(I2
tp5670
g12
I00
S'\xe1\x0e\x0bC(:\x9c\xc2'
p5671
tp5672
bsS'BG'
p5673
g2
(g3
(I0
tp5674
g5
tp5675
Rp5676
(I1
(I2
tp5677
g12
I00
S'\xfb\xe2\xcbA\x7f\xef*B'
p5678
tp5679
bsS'BA'
p5680
g2
(g3
(I0
tp5681
g5
tp5682
Rp5683
(I1
(I2
tp5684
g12
I00
S'\xbfn\x8dA\xde\xa9/B'
p5685
tp5686
bsS'OJSC FORTUM RUSSIA'
p5687
g2
(g3
(I0
tp5688
g5
tp5689
Rp5690
(I1
(I2
tp5691
g12
I00
S'\x19\xcb\x8eC\x8cW7B'
p5692
tp5693
bsS'KOREAN PENINSULA ENERGY DEV'
p5694
g2
(g3
(I0
tp5695
g5
tp5696
Rp5697
(I1
(I2
tp5698
g12
I00
S'\xd2\xfa\xb5C\xd5\xeaVB'
p5699
tp5700
bsS'NORTH EASTERN ELECTRIC POWER'
p5701
g2
(g3
(I0
tp5702
g5
tp5703
Rp5704
(I1
(I2
tp5705
g12
I00
S'\xc2k\x01Cp\xc9v\xc2'
p5706
tp5707
bsS'MARAFIQ'
p5708
g2
(g3
(I0
tp5709
g5
tp5710
Rp5711
(I1
(I2
tp5712
g12
I00
S']RYC\x96\x8c\x8dB'
p5713
tp5714
bsS'BH'
p5715
g2
(g3
(I0
tp5716
g5
tp5717
Rp5718
(I1
(I2
tp5719
g12
I00
S'\x14\x8dJB}q\xcfA'
p5720
tp5721
bsS'GUANGZHOU PEARL RIVER POWER CO'
p5722
g2
(g3
(I0
tp5723
g5
tp5724
Rp5725
(I1
(I2
tp5726
g12
I00
S'~{)C\xf5\x98\x1bC'
p5727
tp5728
bsS'BT'
p5729
g2
(g3
(I0
tp5730
g5
tp5731
Rp5732
(I1
(I2
tp5733
g12
I00
S'\x01\xde\xb4B\x01\x1d\xdcA'
p5734
tp5735
bsS'PUBLIC ELECTRICITY CORP'
p5736
g2
(g3
(I0
tp5737
g5
tp5738
Rp5739
(I1
(I2
tp5740
g12
I00
S'\xd1\xd9,A\xadI\\\xc3'
p5741
tp5742
bsS'OAO SIBEKO'
p5743
g2
(g3
(I0
tp5744
g5
tp5745
Rp5746
(I1
(I2
tp5747
g12
I00
S'\x90\xearCkS\xf2A'
p5748
tp5749
bsS'ODISHA THERMAL POWER CORP LTD'
p5750
g2
(g3
(I0
tp5751
g5
tp5752
Rp5753
(I1
(I2
tp5754
g12
I00
S'\xaf\xa8\tC0\x9c\xb6\xc2'
p5755
tp5756
bsS'PUGET SOUND ENERGY INC'
p5757
g2
(g3
(I0
tp5758
g5
tp5759
Rp5760
(I1
(I2
tp5761
g12
I00
S'h\x96X\xc3\xa9\x83\x98B'
p5762
tp5763
bsS'CHINA PETROCHEM CORP (SINOPEC)'
p5764
g2
(g3
(I0
tp5765
g5
tp5766
Rp5767
(I1
(I2
tp5768
g12
I00
S'I|\x13C\xddS\x11C'
p5769
tp5770
bsS'SHENHUA GUOHUA ELEC POWER CORP'
p5771
g2
(g3
(I0
tp5772
g5
tp5773
Rp5774
(I1
(I2
tp5775
g12
I00
S'\xc7\xaf\x06CL\xd9\rC'
p5776
tp5777
bsS'KERALA STATE ELECTRICITY BOARD'
p5778
g2
(g3
(I0
tp5779
g5
tp5780
Rp5781
(I1
(I2
tp5782
g12
I00
S'\xa9\xa7\x19C\xac\x019\xc2'
p5783
tp5784
bsS'BY'
p5785
g2
(g3
(I0
tp5786
g5
tp5787
Rp5788
(I1
(I2
tp5789
g12
I00
S'\x8a\xa0\xdfA\xd8\xd6VB'
p5790
tp5791
bsS'PG'
p5792
g2
(g3
(I0
tp5793
g5
tp5794
Rp5795
(I1
(I2
tp5796
g12
I00
S'\x9f\xf4\x0fCl\x14\xca\xc0'
p5797
tp5798
bsS'BR'
p5799
g2
(g3
(I0
tp5800
g5
tp5801
Rp5802
(I1
(I2
tp5803
g12
I00
S'}\xb3O\xc2\x94\xc2c\xc1'
p5804
tp5805
bsS'SAUDI ELECTRICITY CO'
p5806
g2
(g3
(I0
tp5807
g5
tp5808
Rp5809
(I1
(I2
tp5810
g12
I00
S'\x96\xac3C~\x861B'
p5811
tp5812
bsS'MACQUARIE GENERATION'
p5813
g2
(g3
(I0
tp5814
g5
tp5815
Rp5816
(I1
(I2
tp5817
g12
I00
S"\xf9>\xdfB'CO\xc3"
p5818
tp5819
bsS'SCOTTISHPOWER RENEWABLES'
p5820
g2
(g3
(I0
tp5821
g5
tp5822
Rp5823
(I1
(I2
tp5824
g12
I00
S'gY\xaf\xc1\te\xb4\xc1'
p5825
tp5826
bsS'ANDHRA PRADESH POWER DEV CO'
p5827
g2
(g3
(I0
tp5828
g5
tp5829
Rp5830
(I1
(I2
tp5831
g12
I00
S'.\xbc\xf4BL\xb2\xa0\xc2'
p5832
tp5833
bsS'SHENHUA BASHU POWER CO LTD'
p5834
g2
(g3
(I0
tp5835
g5
tp5836
Rp5837
(I1
(I2
tp5838
g12
I00
S'\x0cs\x1aC\xd2]4C'
p5839
tp5840
bsS'ANDHRA PRADESH POWER GEN CORP'
p5841
g2
(g3
(I0
tp5842
g5
tp5843
Rp5844
(I1
(I2
tp5845
g12
I00
S'\xe9\xed\nC\x99\xed?\xc2'
p5846
tp5847
bsS'SITHE GLOBAL POWER LLC'
p5848
g2
(g3
(I0
tp5849
g5
tp5850
Rp5851
(I1
(I2
tp5852
g12
I00
S'\x164b\xc3g`\xa0B'
p5853
tp5854
bsS'E.ON CLIMATE AND RENEWABLES NA'
p5855
g2
(g3
(I0
tp5856
g5
tp5857
Rp5858
(I1
(I2
tp5859
g12
I00
S'8\x97M\xc3\xa0\xe8yB'
p5860
tp5861
bsS'GHOGARPALLI INTEGRATED POWER'
p5862
g2
(g3
(I0
tp5863
g5
tp5864
Rp5865
(I1
(I2
tp5866
g12
I00
S'\xc2\xa7\x0eC\x9c\x04\xa3\xc2'
p5867
tp5868
bsS'CNOOC GAS & POWER LTD'
p5869
g2
(g3
(I0
tp5870
g5
tp5871
Rp5872
(I1
(I2
tp5873
g12
I00
S'\xa2<\x0bCQ\x10\x08C'
p5874
tp5875
bsS'CENTRAL POWER GEN CO LTD'
p5876
g2
(g3
(I0
tp5877
g5
tp5878
Rp5879
(I1
(I2
tp5880
g12
I00
S'\xa8\xefCC)\x9dpB'
p5881
tp5882
bsS'EMERGY ENERGY INC'
p5883
g2
(g3
(I0
tp5884
g5
tp5885
Rp5886
(I1
(I2
tp5887
g12
I00
S'\xe8\xb9d\xc3*\xfc\xa4B'
p5888
tp5889
bsS'ADVANCED POWER (NA) LLC'
p5890
g2
(g3
(I0
tp5891
g5
tp5892
Rp5893
(I1
(I2
tp5894
g12
I00
S'\xdb\xe4i\xc3g\x9a\xb7B'
p5895
tp5896
bsS'JIANGSU CHANGSHU POWER GEN CO'
p5897
g2
(g3
(I0
tp5898
g5
tp5899
Rp5900
(I1
(I2
tp5901
g12
I00
S'\x1c\xe9!Czn\x17C'
p5902
tp5903
bsS'XUZHOU MINING GROUP CO LTD'
p5904
g2
(g3
(I0
tp5905
g5
tp5906
Rp5907
(I1
(I2
tp5908
g12
I00
S'\x00\xba\x1eC5I\x08C'
p5909
tp5910
bsS'COLBUN SA'
p5911
g2
(g3
(I0
tp5912
g5
tp5913
Rp5914
(I1
(I2
tp5915
g12
I00
S'<\x114\xc3\xdaK1\xc3'
p5916
tp5917
bsS'EQUIPOWER RESOURCES CORP'
p5918
g2
(g3
(I0
tp5919
g5
tp5920
Rp5921
(I1
(I2
tp5922
g12
I00
S'\x12wM\xc38"\xd7B'
p5923
tp5924
bsS'KOREA-CHINA HYDROELEC POWER'
p5925
g2
(g3
(I0
tp5926
g5
tp5927
Rp5928
(I1
(I2
tp5929
g12
I00
S'\xa1\xc3\xb4C\xb9T\x8dB'
p5930
tp5931
bsS'DATANG HUNAN HUAYIN ELEC POWER'
p5932
g2
(g3
(I0
tp5933
g5
tp5934
Rp5935
(I1
(I2
tp5936
g12
I00
S']\x0b\x19C\x19\x88\rC'
p5937
tp5938
bsS'ELEKTROPRIVREDA SRBIJE (EPS)'
p5939
g2
(g3
(I0
tp5940
g5
tp5941
Rp5942
(I1
(I2
tp5943
g12
I00
S'Y\xa5\x16B{6\x83C'
p5944
tp5945
bsS'ENRON INTERNATIONAL INC'
p5946
g2
(g3
(I0
tp5947
g5
tp5948
Rp5949
(I1
(I2
tp5950
g12
I00
S'\x0b\x88kB\x85\xba\x86\xc2'
p5951
tp5952
bsS'SOUTHEAST POWERGEN LLC'
p5953
g2
(g3
(I0
tp5954
g5
tp5955
Rp5956
(I1
(I2
tp5957
g12
I00
S'\xa2\xcb]\xc3\x1b\xa4\xbaB'
p5958
tp5959
bsS'SADESA - SOC ARGENTINA ENERGIA'
p5960
g2
(g3
(I0
tp5961
g5
tp5962
Rp5963
(I1
(I2
tp5964
g12
I00
S'\xd0C\x18\xc3gNv\xc3'
p5965
tp5966
bsS'DATANG INTL POWER GEN CO'
p5967
g2
(g3
(I0
tp5968
g5
tp5969
Rp5970
(I1
(I2
tp5971
g12
I00
S'\xe1*\x0cCR\x84\x0fC'
p5972
tp5973
bsS'VOLZHSKAYA TERR GEN (TGC-07)'
p5974
g2
(g3
(I0
tp5975
g5
tp5976
Rp5977
(I1
(I2
tp5978
g12
I00
S'\xf6x\x8eC\xfc\x87{B'
p5979
tp5980
bsS'RINGHALS AB'
p5981
g2
(g3
(I0
tp5982
g5
tp5983
Rp5984
(I1
(I2
tp5985
g12
I00
S'P~B\xc2_QGC'
p5986
tp5987
bsS'NOVA SCOTIA POWER INC'
p5988
g2
(g3
(I0
tp5989
g5
tp5990
Rp5991
(I1
(I2
tp5992
g12
I00
S'F\x93\x8f\xc3v\x0f\x95B'
p5993
tp5994
bsS'PDVSA - PETROLEOS DE VENEZUELA'
p5995
g2
(g3
(I0
tp5996
g5
tp5997
Rp5998
(I1
(I2
tp5999
g12
I00
S'\xbeYy\xc2\x9701\xc3'
p6000
tp6001
bsS'POCHEON POWER CO LTD'
p6002
g2
(g3
(I0
tp6003
g5
tp6004
Rp6005
(I1
(I2
tp6006
g12
I00
S'\x8dO\x95C\xed\xb6\xe9B'
p6007
tp6008
bsS'EXXONMOBIL CORP'
p6009
g2
(g3
(I0
tp6010
g5
tp6011
Rp6012
(I1
(I2
tp6013
g12
I00
S'\xc6t\x02\xc3\xca\xf9\xdcA'
p6014
tp6015
bsS'ARMENIAN NUCLEAR POWER PLANT'
p6016
g2
(g3
(I0
tp6017
g5
tp6018
Rp6019
(I1
(I2
tp6020
g12
I00
S'\xca\xb3\xb7\xc2\xe7\xf6bC'
p6021
tp6022
bsS'ESFAHAN REGIONAL ELEC POWER CO'
p6023
g2
(g3
(I0
tp6024
g5
tp6025
Rp6026
(I1
(I2
tp6027
g12
I00
S'\xf6 ~B>\xd4\x86C'
p6028
tp6029
bsS'SEMPRA US GAS & POWER LLC'
p6030
g2
(g3
(I0
tp6031
g5
tp6032
Rp6033
(I1
(I2
tp6034
g12
I00
S'\xe5\xc5D\xc3\xc3\xac\x92B'
p6035
tp6036
bsS'OM'
p6037
g2
(g3
(I0
tp6038
g5
tp6039
Rp6040
(I1
(I2
tp6041
g12
I00
S'j\xb1_B\xc5\x19\xacA'
p6042
tp6043
bsS'CASTLETON COMMODITIES INTL LLC'
p6044
g2
(g3
(I0
tp6045
g5
tp6046
Rp6047
(I1
(I2
tp6048
g12
I00
S'?\x8cg\xc3I:\x97B'
p6049
tp6050
bsS'COEGA DEVELOPMENT CORP (CDC)'
p6051
g2
(g3
(I0
tp6052
g5
tp6053
Rp6054
(I1
(I2
tp6055
g12
I00
S'\x02~\x19\xc1\xecwK\xc3'
p6056
tp6057
bsS'AXPO AG'
p6058
g2
(g3
(I0
tp6059
g5
tp6060
Rp6061
(I1
(I2
tp6062
g12
I00
S':2\xbf\xc1\xf5\xdb\x10\xc3'
p6063
tp6064
bsS'GDF SUEZ ENERGIA IBERIA'
p6065
g2
(g3
(I0
tp6066
g5
tp6067
Rp6068
(I1
(I2
tp6069
g12
I00
S'\x99\x11\xd9\xc2$[\xa8A'
p6070
tp6071
bsS'IL'
p6072
g2
(g3
(I0
tp6073
g5
tp6074
Rp6075
(I1
(I2
tp6076
g12
I00
S'\rh\x0bBP^\xf8A'
p6077
tp6078
bsS'WANJI HOLDING GROUP CO LTD'
p6079
g2
(g3
(I0
tp6080
g5
tp6081
Rp6082
(I1
(I2
tp6083
g12
I00
S'\x1c\x10%C\x86\xf1\x15C'
p6084
tp6085
bsS'RAICHUR POWER CORP LTD'
p6086
g2
(g3
(I0
tp6087
g5
tp6088
Rp6089
(I1
(I2
tp6090
g12
I00
S'B.\x0fC\x0c\x13\xb1\xc2'
p6091
tp6092
bsS'LOS ANGELES DEPT OF WTR & PWR'
p6093
g2
(g3
(I0
tp6094
g5
tp6095
Rp6096
(I1
(I2
tp6097
g12
I00
S'\x94ZC\xc3\xb5\x0c\xa0B'
p6098
tp6099
bsS'GAMEK GAB APROV MEDIO KWANZA'
p6100
g2
(g3
(I0
tp6101
g5
tp6102
Rp6103
(I1
(I2
tp6104
g12
I00
S'C\x9f\x83\xc2\x01\x9bX\xc3'
p6105
tp6106
bsS'BEIJING GUOHUA ELECTRIC POWER'
p6107
g2
(g3
(I0
tp6108
g5
tp6109
Rp6110
(I1
(I2
tp6111
g12
I00
S'\xbbW,C\x88+"C'
p6112
tp6113
bsS'MINISTRY OF ENERGY (BY)'
p6114
g2
(g3
(I0
tp6115
g5
tp6116
Rp6117
(I1
(I2
tp6118
g12
I00
S'\xf5\x95\xbaB\xaf\xb1\x8aC'
p6119
tp6120
bsS'ENDESA CHILE'
p6121
g2
(g3
(I0
tp6122
g5
tp6123
Rp6124
(I1
(I2
tp6125
g12
I00
S'\x0c\x0c:\xc3G\xda*\xc3'
p6126
tp6127
bsS'SEABANK POWER LTD'
p6128
g2
(g3
(I0
tp6129
g5
tp6130
Rp6131
(I1
(I2
tp6132
g12
I00
S'\x92\xadJ\xc1\xc0\xa7s\xc2'
p6133
tp6134
bsS'MINISTRY ELEC & WATER (KW)'
p6135
g2
(g3
(I0
tp6136
g5
tp6137
Rp6138
(I1
(I2
tp6139
g12
I00
S"\xaa\x00'\xc1,\x0f4C"
p6140
tp6141
bsS'PGE EJ1 SP ZOO'
p6142
g2
(g3
(I0
tp6143
g5
tp6144
Rp6145
(I1
(I2
tp6146
g12
I00
S'\x03\xde\xc0\xc2\xd8r\x0cC'
p6147
tp6148
bsS'MANILA ELECTRIC CO (MERALCO)'
p6149
g2
(g3
(I0
tp6150
g5
tp6151
Rp6152
(I1
(I2
tp6153
g12
I00
S'\x18&\xadB\x17\xd9\xa9B'
p6154
tp6155
bsS'DEVELOPMENT PARTNERS GROUP LLC'
p6156
g2
(g3
(I0
tp6157
g5
tp6158
Rp6159
(I1
(I2
tp6160
g12
I00
S'\xe3Ba\xc3q\x8e\xddB'
p6161
tp6162
bsS'KENYA ELECTRICITY GEN CO LTD'
p6163
g2
(g3
(I0
tp6164
g5
tp6165
Rp6166
(I1
(I2
tp6167
g12
I00
S'\xdeI`Ay\xc4i\xc3'
p6168
tp6169
bsS'TRADEWIND ENERGY INC'
p6170
g2
(g3
(I0
tp6171
g5
tp6172
Rp6173
(I1
(I2
tp6174
g12
I00
S'n\xd1S\xc3\x90\xc9}B'
p6175
tp6176
bsS'JEA'
p6177
g2
(g3
(I0
tp6178
g5
tp6179
Rp6180
(I1
(I2
tp6181
g12
I00
S'\xdd\xd9U\xc3\xbe\xef\xbeB'
p6182
tp6183
bsS'SHENHUA GUOHUA MENGJIN POWER'
p6184
g2
(g3
(I0
tp6185
g5
tp6186
Rp6187
(I1
(I2
tp6188
g12
I00
S'R\xcc!C^\x17\x0fC'
p6189
tp6190
bsS'TRANSALTA GENERATION LTD'
p6191
g2
(g3
(I0
tp6192
g5
tp6193
Rp6194
(I1
(I2
tp6195
g12
I00
S'|\xefo\xc3\x1b7\xafB'
p6196
tp6197
bsS'GS EPS CO LTD'
p6198
g2
(g3
(I0
tp6199
g5
tp6200
Rp6201
(I1
(I2
tp6202
g12
I00
S'Q\xc8DC\x99\xbf\xc2B'
p6203
tp6204
bsS'EAST COAST ENERGY PVT LTD (ECE'
p6205
g2
(g3
(I0
tp6206
g5
tp6207
Rp6208
(I1
(I2
tp6209
g12
I00
S'W0\x13CI\xc0\xaa\xc2'
p6210
tp6211
bsS'CIA ENER MINAS GERAIS (CEMIG)'
p6212
g2
(g3
(I0
tp6213
g5
tp6214
Rp6215
(I1
(I2
tp6216
g12
I00
S'0\xa8\x0c\xc3X\xe7\xbf\xc2'
p6217
tp6218
bsS'GDF SUEZ ENERGY GEN NA INC'
p6219
g2
(g3
(I0
tp6220
g5
tp6221
Rp6222
(I1
(I2
tp6223
g12
I00
S'\x0b\xefV\xc3\xd8,\xa1B'
p6224
tp6225
bsS'GENTING BHD'
p6226
g2
(g3
(I0
tp6227
g5
tp6228
Rp6229
(I1
(I2
tp6230
g12
I00
S'B\xa04C\x84\xe9\xf2B'
p6231
tp6232
bsS'FI'
p6233
g2
(g3
(I0
tp6234
g5
tp6235
Rp6236
(I1
(I2
tp6237
g12
I00
S'7\xfc\xcdAJ\xb2wB'
p6238
tp6239
bsS'CHURCHILL FALLS (LABRADOR)'
p6240
g2
(g3
(I0
tp6241
g5
tp6242
Rp6243
(I1
(I2
tp6244
g12
I00
S'B\x96\x8c\xc3\xf9\xc4\x9cB'
p6245
tp6246
bsS'CNNC SANMEN NUCLEAR POWER CO'
p6247
g2
(g3
(I0
tp6248
g5
tp6249
Rp6250
(I1
(I2
tp6251
g12
I00
S'\x9b"\x14C!3\nC'
p6252
tp6253
bsS'JIANGSU HUADIAN YANGZHOU POWER'
p6254
g2
(g3
(I0
tp6255
g5
tp6256
Rp6257
(I1
(I2
tp6258
g12
I00
S'\x12\xb5\x1aC<\xc1\x06C'
p6259
tp6260
bsS'PPL GENERATION LLC'
p6261
g2
(g3
(I0
tp6262
g5
tp6263
Rp6264
(I1
(I2
tp6265
g12
I00
S'\xef}J\xc3\x99C\xbaB'
p6266
tp6267
bsS'TANZANIA ELECTRIC SUPPLY CO'
p6268
g2
(g3
(I0
tp6269
g5
tp6270
Rp6271
(I1
(I2
tp6272
g12
I00
S'\xbf\x02\x05\xc2\x9b5[\xc3'
p6273
tp6274
bsS'CHINA LONGYUAN POWER GROUP'
p6275
g2
(g3
(I0
tp6276
g5
tp6277
Rp6278
(I1
(I2
tp6279
g12
I00
S'\x08\xf7\x0eCX\xa2\x03C'
p6280
tp6281
bsS'NRG GENON'
p6282
g2
(g3
(I0
tp6283
g5
tp6284
Rp6285
(I1
(I2
tp6286
g12
I00
S'H6G\xc3t\x92\x9cB'
p6287
tp6288
bsS'EGGBOROUGH POWER LTD'
p6289
g2
(g3
(I0
tp6290
g5
tp6291
Rp6292
(I1
(I2
tp6293
g12
I00
S'k\xed\xa0\xc1(#\x83\xc2'
p6294
tp6295
bsS'GUANGDONG BAOLIHUA NEW ENERGY'
p6296
g2
(g3
(I0
tp6297
g5
tp6298
Rp6299
(I1
(I2
tp6300
g12
I00
S'$\xd6\x1bCH\xcd\x1aC'
p6301
tp6302
bsS'GUODIAN HUNAN POWER CO LTD'
p6303
g2
(g3
(I0
tp6304
g5
tp6305
Rp6306
(I1
(I2
tp6307
g12
I00
S'\xff\x8b\x0fC\x90\x1d6C'
p6308
tp6309
bsS'UTTAR PRADESH RAJYA VIDYUT'
p6310
g2
(g3
(I0
tp6311
g5
tp6312
Rp6313
(I1
(I2
tp6314
g12
I00
S'6\x90\xf5BqY\x87\xc2'
p6315
tp6316
bsS'PPL MONTANA LLC'
p6317
g2
(g3
(I0
tp6318
g5
tp6319
Rp6320
(I1
(I2
tp6321
g12
I00
S'\xf0\x91d\xc3\x13\xfd\xcbB'
p6322
tp6323
bsS'AKFEN ENERJI YATIRIMLARI HOLD'
p6324
g2
(g3
(I0
tp6325
g5
tp6326
Rp6327
(I1
(I2
tp6328
g12
I00
S'v\xd0\xe0\xc2z\xe77\xc2'
p6329
tp6330
bsS'SOC ALGERIENNE ELEC (SONELGAZ)'
p6331
g2
(g3
(I0
tp6332
g5
tp6333
Rp6334
(I1
(I2
tp6335
g12
I00
S'J\xaf\xc4\xc2FG\x1d\xc3'
p6336
tp6337
bsS'KAPAR ENERGY VENTURES SDN BHD'
p6338
g2
(g3
(I0
tp6339
g5
tp6340
Rp6341
(I1
(I2
tp6342
g12
I00
S'\x98\xa1\x9bC\xe8G\xb9@'
p6343
tp6344
bsS'GADANI GEHZUOBA'
p6345
g2
(g3
(I0
tp6346
g5
tp6347
Rp6348
(I1
(I2
tp6349
g12
I00
S'\xe4,?Ci\xfa3B'
p6350
tp6351
bsS'ABOITIZ POWER CORP'
p6352
g2
(g3
(I0
tp6353
g5
tp6354
Rp6355
(I1
(I2
tp6356
g12
I00
S'\x9a\xdf\x08C~\x1cnB'
p6357
tp6358
bsS'GUODIAN CHENGDU JINTANG POWER'
p6359
g2
(g3
(I0
tp6360
g5
tp6361
Rp6362
(I1
(I2
tp6363
g12
I00
S'\\3"C\xb6\r\x13C'
p6364
tp6365
bsS'TRANSCANADA ENERGY LTD'
p6366
g2
(g3
(I0
tp6367
g5
tp6368
Rp6369
(I1
(I2
tp6370
g12
I00
S'FQ`\xc3\x8a/\x99B'
p6371
tp6372
bsS'INDRAPRASTHA POWER GENERATION'
p6373
g2
(g3
(I0
tp6374
g5
tp6375
Rp6376
(I1
(I2
tp6377
g12
I00
S' ` C~\xfcS\xc2'
p6378
tp6379
bsS'GULF JP CO LTD'
p6380
g2
(g3
(I0
tp6381
g5
tp6382
Rp6383
(I1
(I2
tp6384
g12
I00
S'\xc6\xc9?C\xc6\xe3\x03\xc3'
p6385
tp6386
bsS'GEPIC POWER INVESTMENT'
p6387
g2
(g3
(I0
tp6388
g5
tp6389
Rp6390
(I1
(I2
tp6391
g12
I00
S'C\xcb,C\x03\xc3\x1dC'
p6392
tp6393
bsS'SHANXI INTL ELEC GROUP CO LTD'
p6394
g2
(g3
(I0
tp6395
g5
tp6396
Rp6397
(I1
(I2
tp6398
g12
I00
S'=/\xedB\x8b\xce\x18C'
p6399
tp6400
bsS'ENEVA SA'
p6401
g2
(g3
(I0
tp6402
g5
tp6403
Rp6404
(I1
(I2
tp6405
g12
I00
S'\xd1w\x06\xc3i\xe1\xe7\xc2'
p6406
tp6407
bsS'BC HYDRO'
p6408
g2
(g3
(I0
tp6409
g5
tp6410
Rp6411
(I1
(I2
tp6412
g12
I00
S'\xb6q\x8a\xc3&\x84MB'
p6413
tp6414
bsS'LOY YANG POWER MANAGEMENT'
p6415
g2
(g3
(I0
tp6416
g5
tp6417
Rp6418
(I1
(I2
tp6419
g12
I00
S'\x8cR\x9eB\x14 ;\xc3'
p6420
tp6421
bsS'CHUGOKU ELECTRIC POWER CO'
p6422
g2
(g3
(I0
tp6423
g5
tp6424
Rp6425
(I1
(I2
tp6426
g12
I00
S'8\x8e\x82C\xc5~\x84\xc2'
p6427
tp6428
bsS'QATAR ELEC AND WATER (QEWC)'
p6429
g2
(g3
(I0
tp6430
g5
tp6431
Rp6432
(I1
(I2
tp6433
g12
I00
S'\x99\xbf6C\xb6\x00\x1b\xc3'
p6434
tp6435
bsS'GULF POWER CO'
p6436
g2
(g3
(I0
tp6437
g5
tp6438
Rp6439
(I1
(I2
tp6440
g12
I00
S'\x1eph\xc3\xf8\x04\xc5B'
p6441
tp6442
bsS'ARAVALI POWER CO PVT LTD'
p6443
g2
(g3
(I0
tp6444
g5
tp6445
Rp6446
(I1
(I2
tp6447
g12
I00
S'1\xec\x18C8\x94\xa3\xc2'
p6448
tp6449
bsS'SORGENIA SPA'
p6450
g2
(g3
(I0
tp6451
g5
tp6452
Rp6453
(I1
(I2
tp6454
g12
I00
S'%\xf6 \xc2\xcb\xb0\xc8\xc2'
p6455
tp6456
bsS'SHANXI YONGJI THERMAL POWER CO'
p6457
g2
(g3
(I0
tp6458
g5
tp6459
Rp6460
(I1
(I2
tp6461
g12
I00
S"\xfc\n-CZ'\x1aC"
p6462
tp6463
bsS'MAGNOX LTD'
p6464
g2
(g3
(I0
tp6465
g5
tp6466
Rp6467
(I1
(I2
tp6468
g12
I00
S'\x9b5\xa8\xc1\xe2\xc7A\xc2'
p6469
tp6470
bsS'OMAHA PUBLIC POWER DIST'
p6471
g2
(g3
(I0
tp6472
g5
tp6473
Rp6474
(I1
(I2
tp6475
g12
I00
S'\x9d\xa4S\xc3\xdd\xf3\x9dB'
p6476
tp6477
bsS'SAKHIGOPAL INTEGRATED POWER CO'
p6478
g2
(g3
(I0
tp6479
g5
tp6480
Rp6481
(I1
(I2
tp6482
g12
I00
S'\xe6P\xf2B\xa0\xa2\xa9\xc2'
p6483
tp6484
bsS'AES TIETE SA'
p6485
g2
(g3
(I0
tp6486
g5
tp6487
Rp6488
(I1
(I2
tp6489
g12
I00
S' I\x0f\xc3a?\xf6\xc2'
p6490
tp6491
bsS'TENASKA CAPITAL MANAGEMENT LLC'
p6492
g2
(g3
(I0
tp6493
g5
tp6494
Rp6495
(I1
(I2
tp6496
g12
I00
S'j\xa1T\xc3\rg\x91B'
p6497
tp6498
bsS'ELECTRICITE DE FRANCE SA (EDF)'
p6499
g2
(g3
(I0
tp6500
g5
tp6501
Rp6502
(I1
(I2
tp6503
g12
I00
S'g\x1a\xab\xc2\x1b\xf3\x8cB'
p6504
tp6505
bsS'AGDER ENERGI AS'
p6506
g2
(g3
(I0
tp6507
g5
tp6508
Rp6509
(I1
(I2
tp6510
g12
I00
S'\x8e\x9e@B\x98\xaf\xbdB'
p6511
tp6512
bsS'EMGESA SA ESP'
p6513
g2
(g3
(I0
tp6514
g5
tp6515
Rp6516
(I1
(I2
tp6517
g12
I00
S'\x93\xe9\x85\xc3b6;\xc2'
p6518
tp6519
bsS'TUAS POWER LTD'
p6520
g2
(g3
(I0
tp6521
g5
tp6522
Rp6523
(I1
(I2
tp6524
g12
I00
S'\x18pVB/\x8b1\xc3'
p6525
tp6526
bsS'GLOBAL 3 ENERGIA SPCA'
p6527
g2
(g3
(I0
tp6528
g5
tp6529
Rp6530
(I1
(I2
tp6531
g12
I00
S"\xf2\xcd\xfa\xc2[\xe1'\xbf"
p6532
tp6533
bsS'CHINA HUADIAN GROUP CORP'
p6534
g2
(g3
(I0
tp6535
g5
tp6536
Rp6537
(I1
(I2
tp6538
g12
I00
S'\xe3\xb7\x0cC\x061\x0cC'
p6539
tp6540
bsS'DONG ENERGY GERMANY'
p6541
g2
(g3
(I0
tp6542
g5
tp6543
Rp6544
(I1
(I2
tp6545
g12
I00
S'\xe6,x\xc2\xc7\xe6\xff\xc1'
p6546
tp6547
bsS'CENTRICA ENERGY'
p6548
g2
(g3
(I0
tp6549
g5
tp6550
Rp6551
(I1
(I2
tp6552
g12
I00
S'F\xbd\xbe\xc0\x07\x9a)\xc2'
p6553
tp6554
bsS'US POWER GENERATING CO'
p6555
g2
(g3
(I0
tp6556
g5
tp6557
Rp6558
(I1
(I2
tp6559
g12
I00
S'\xaa\xabB\xc3\xe0\xb6\x87B'
p6560
tp6561
bsS'CPI WULING ELEC POWER CO LTD'
p6562
g2
(g3
(I0
tp6563
g5
tp6564
Rp6565
(I1
(I2
tp6566
g12
I00
S'Lt\x12C0\xa2\x06C'
p6567
tp6568
bsS'SINOHYDRO INTERNATIONAL'
p6569
g2
(g3
(I0
tp6570
g5
tp6571
Rp6572
(I1
(I2
tp6573
g12
I00
S'P,#C }kA'
p6574
tp6575
bsS'NEW ENGLAND POWER CO'
p6576
g2
(g3
(I0
tp6577
g5
tp6578
Rp6579
(I1
(I2
tp6580
g12
I00
S'\x05H\\\xc3j\xad\xe5B'
p6581
tp6582
bsS'US'
p6583
g2
(g3
(I0
tp6584
g5
tp6585
Rp6586
(I1
(I2
tp6587
g12
I00
S'\x00m\xbf\xc2h\\\x14B'
p6588
tp6589
bsS'HUADIAN POWER INTL CORP'
p6590
g2
(g3
(I0
tp6591
g5
tp6592
Rp6593
(I1
(I2
tp6594
g12
I00
S'\xe8\x11\tC7\x91\x10C'
p6595
tp6596
bsS'FAR EASTERN GENERATING CO JSC'
p6597
g2
(g3
(I0
tp6598
g5
tp6599
Rp6600
(I1
(I2
tp6601
g12
I00
S'd\xb8\x95C\x1cL{B'
p6602
tp6603
bsS'SN NUCLEARELECTRICA SA'
p6604
g2
(g3
(I0
tp6605
g5
tp6606
Rp6607
(I1
(I2
tp6608
g12
I00
S'/6\x03C>\xdeTC'
p6609
tp6610
bsS'ANADOLU BIRLIK HOLDING'
p6611
g2
(g3
(I0
tp6612
g5
tp6613
Rp6614
(I1
(I2
tp6615
g12
I00
S'\x9d\x8f\xc5\xc2w\xccp\xc2'
p6616
tp6617
bsS'SANTEE COOPER'
p6618
g2
(g3
(I0
tp6619
g5
tp6620
Rp6621
(I1
(I2
tp6622
g12
I00
S'\xc2\nG\xc38\xd6\xcdB'
p6623
tp6624
bsS'NEKA POWER GENERATION MGMT CO'
p6625
g2
(g3
(I0
tp6626
g5
tp6627
Rp6628
(I1
(I2
tp6629
g12
I00
S'\x1f\xd5\x97B\x86O\x84C'
p6630
tp6631
bsS'JIMAH EAST POWER SDN BHD'
p6632
g2
(g3
(I0
tp6633
g5
tp6634
Rp6635
(I1
(I2
tp6636
g12
I00
S'Z\x89\x9eC=\x04\x81A'
p6637
tp6638
bsS'ENERSUR SA'
p6639
g2
(g3
(I0
tp6640
g5
tp6641
Rp6642
(I1
(I2
tp6643
g12
I00
S'\x00\xf9\\\xc3+c\xd7\xc2'
p6644
tp6645
bsS'EAST CHINA GRID CO LTD'
p6646
g2
(g3
(I0
tp6647
g5
tp6648
Rp6649
(I1
(I2
tp6650
g12
I00
S'\xf2\xc2(C\x11j)C'
p6651
tp6652
bsS'CEYLON ELECTRICITY BOARD'
p6653
g2
(g3
(I0
tp6654
g5
tp6655
Rp6656
(I1
(I2
tp6657
g12
I00
S'o\x04\x85C}S\x03\xc3'
p6658
tp6659
bsS'UA'
p6660
g2
(g3
(I0
tp6661
g5
tp6662
Rp6663
(I1
(I2
tp6664
g12
I00
S'\x1cS\xf9A\x8a\x84AB'
p6665
tp6666
bsS'GUJARAT STATE ELEC CORP LTD'
p6667
g2
(g3
(I0
tp6668
g5
tp6669
Rp6670
(I1
(I2
tp6671
g12
I00
S'\xf4\xdd\x02C 6\x86\xc2'
p6672
tp6673
bsS'SHAHID ABBASPOUR POWER GEN CO'
p6674
g2
(g3
(I0
tp6675
g5
tp6676
Rp6677
(I1
(I2
tp6678
g12
I00
S'+\x08LBC\xd7\x89C'
p6679
tp6680
bsS'PUBLIC SERVICE ELECTRIC & GAS'
p6681
g2
(g3
(I0
tp6682
g5
tp6683
Rp6684
(I1
(I2
tp6685
g12
I00
S'\x15\x0fN\xc3\xef\x18\xc8B'
p6686
tp6687
bsS'PT JAWA ENERGY'
p6688
g2
(g3
(I0
tp6689
g5
tp6690
Rp6691
(I1
(I2
tp6692
g12
I00
S'\xb7\xe7\x07B\x8e\x95\xda\xc2'
p6693
tp6694
bsS'JAMMU & KASHMIR POWER DEV CORP'
p6695
g2
(g3
(I0
tp6696
g5
tp6697
Rp6698
(I1
(I2
tp6699
g12
I00
S'\x1a\x10\x1aC\x01\x89w\xc2'
p6700
tp6701
bsS'DATANG GUANYINYAN HYDRO DEV CO'
p6702
g2
(g3
(I0
tp6703
g5
tp6704
Rp6705
(I1
(I2
tp6706
g12
I00
S'U\xb7$C\xde\x82\x1aC'
p6707
tp6708
bsS'GUANGXI POWER GROUP CORP'
p6709
g2
(g3
(I0
tp6710
g5
tp6711
Rp6712
(I1
(I2
tp6713
g12
I00
S'\xd0%#C`)\x08C'
p6714
tp6715
bsS'INTERGEN MEXICO'
p6716
g2
(g3
(I0
tp6717
g5
tp6718
Rp6719
(I1
(I2
tp6720
g12
I00
S'\x8c\xa5\x06\xc3wi(C'
p6721
tp6722
bsS'DELHI MUMBAI INDUST CORR DEV'
p6723
g2
(g3
(I0
tp6724
g5
tp6725
Rp6726
(I1
(I2
tp6727
g12
I00
S']\xb8\x1aC\x15\x15\x90\xc2'
p6728
tp6729
bsS'ELEKTROWNIA RYBNIK SA'
p6730
g2
(g3
(I0
tp6731
g5
tp6732
Rp6733
(I1
(I2
tp6734
g12
I00
S'\xcb~\xc2\xc2\xba\xc3\x14C'
p6735
tp6736
bsS'INVENERGY LLC'
p6737
g2
(g3
(I0
tp6738
g5
tp6739
Rp6740
(I1
(I2
tp6741
g12
I00
S'\xa9\xbfZ\xc3\x10[\xa6B'
p6742
tp6743
bsS'PT PLN PERSERO'
p6744
g2
(g3
(I0
tp6745
g5
tp6746
Rp6747
(I1
(I2
tp6748
g12
I00
S'~BaB)\x14\xc7\xc2'
p6749
tp6750
bsS'EDIPOWER SPA'
p6751
g2
(g3
(I0
tp6752
g5
tp6753
Rp6754
(I1
(I2
tp6755
g12
I00
S'B|w\xc1\xdf\x03\xae\xc2'
p6756
tp6757
bsS'STEAG GMBH'
p6758
g2
(g3
(I0
tp6759
g5
tp6760
Rp6761
(I1
(I2
tp6762
g12
I00
S'L\x8f\x8c\xc2\x0c\xf5\x82\xc1'
p6763
tp6764
bsS'NO'
p6765
g2
(g3
(I0
tp6766
g5
tp6767
Rp6768
(I1
(I2
tp6769
g12
I00
S'\xce\x80\x07AZ\xe3qB'
p6770
tp6771
bsS'ENTERGY ASSET MANAGEMENT INC'
p6772
g2
(g3
(I0
tp6773
g5
tp6774
Rp6775
(I1
(I2
tp6776
g12
I00
S'V\x809\xc3\xf8)\x9cB'
p6777
tp6778
bsS'ENERVIE-SUDWESTFALEN ENERGIE'
p6779
g2
(g3
(I0
tp6780
g5
tp6781
Rp6782
(I1
(I2
tp6783
g12
I00
S'\xf2\xee\xac\xc2.\xdb\xbf\xc1'
p6784
tp6785
bsS'SLOVENSKE ELEKTRARNE AS (SE)'
p6786
g2
(g3
(I0
tp6787
g5
tp6788
Rp6789
(I1
(I2
tp6790
g12
I00
S'\xfe\x82\xbb\xc1\xb1+|C'
p6791
tp6792
bsS'DSC LTD'
p6793
g2
(g3
(I0
tp6794
g5
tp6795
Rp6796
(I1
(I2
tp6797
g12
I00
S'g/\x05C\\\x7f\xb9\xc2'
p6798
tp6799
bsS'ENDESA SA'
p6800
g2
(g3
(I0
tp6801
g5
tp6802
Rp6803
(I1
(I2
tp6804
g12
I00
S'F\x08\xbd\xc2\x90\x94\xbeA'
p6805
tp6806
bsS'BP ALTERNATIVE ENERGY'
p6807
g2
(g3
(I0
tp6808
g5
tp6809
Rp6810
(I1
(I2
tp6811
g12
I00
S'\xae\x07P\xc3~\xa0\x88B'
p6812
tp6813
bsS'DAYTON POWER & LIGHT CO (OH)'
p6814
g2
(g3
(I0
tp6815
g5
tp6816
Rp6817
(I1
(I2
tp6818
g12
I00
S'\x04\xa6Q\xc3\xf8\xb3\x8fB'
p6819
tp6820
bsS'KR'
p6821
g2
(g3
(I0
tp6822
g5
tp6823
Rp6824
(I1
(I2
tp6825
g12
I00
S'\xaa\x88\xffB\x8b\xa1\x0fB'
p6826
tp6827
bsS'LIAONING NUCLEAR POWER CO LTD'
p6828
g2
(g3
(I0
tp6829
g5
tp6830
Rp6831
(I1
(I2
tp6832
g12
I00
S'\xfa?\x1fC&\xab*C'
p6833
tp6834
bsS'DTE ELECTRIC CO'
p6835
g2
(g3
(I0
tp6836
g5
tp6837
Rp6838
(I1
(I2
tp6839
g12
I00
S'\xdc\x1cH\xc3&\xb9\xb3B'
p6840
tp6841
bsS'NL'
p6842
g2
(g3
(I0
tp6843
g5
tp6844
Rp6845
(I1
(I2
tp6846
g12
I00
S'\rR\xa9@\xd1\x87PB'
p6847
tp6848
bsS'INDIAN OIL CORP LTD (IOC)'
p6849
g2
(g3
(I0
tp6850
g5
tp6851
Rp6852
(I1
(I2
tp6853
g12
I00
S'\x065\x18C\xb2x\xae\xc2'
p6854
tp6855
bsS'MVM PAKS II'
p6856
g2
(g3
(I0
tp6857
g5
tp6858
Rp6859
(I1
(I2
tp6860
g12
I00
S'`jD\xc2+\x9e\x1bC'
p6861
tp6862
bsS'HINDUSTAN POWERPROJECTS PVT LT'
p6863
g2
(g3
(I0
tp6864
g5
tp6865
Rp6866
(I1
(I2
tp6867
g12
I00
S'%\xf9\tC\xb4K\x81\xc2'
p6868
tp6869
bsS'ELECTROPERU SA'
p6870
g2
(g3
(I0
tp6871
g5
tp6872
Rp6873
(I1
(I2
tp6874
g12
I00
S'\x9a\x97X\xc3Fl\xea\xc2'
p6875
tp6876
bsS'FLORIDA POWER & LIGHT CO'
p6877
g2
(g3
(I0
tp6878
g5
tp6879
Rp6880
(I1
(I2
tp6881
g12
I00
S'\x19\x8aG\xc3]\xcd\xa9B'
p6882
tp6883
bsS'HUANENG XINJIANG ENERGY DEV CO'
p6884
g2
(g3
(I0
tp6885
g5
tp6886
Rp6887
(I1
(I2
tp6888
g12
I00
S"\xcd\xd9'C\xb1\x18\x14C"
p6889
tp6890
bsS'NG'
p6891
g2
(g3
(I0
tp6892
g5
tp6893
Rp6894
(I1
(I2
tp6895
g12
I00
S'\xef\xcd\nA\xdeO\x11A'
p6896
tp6897
bsS'HR'
p6898
g2
(g3
(I0
tp6899
g5
tp6900
Rp6901
(I1
(I2
tp6902
g12
I00
S'33sAff4B'
p6903
tp6904
bsS'NZ'
p6905
g2
(g3
(I0
tp6906
g5
tp6907
Rp6908
(I1
(I2
tp6909
g12
I00
S'\xcf\xe2.C,\x9a#\xc2'
p6910
tp6911
bsS'CORONADO POWER VENTURES'
p6912
g2
(g3
(I0
tp6913
g5
tp6914
Rp6915
(I1
(I2
tp6916
g12
I00
S'\xa1\xaf]\xc3\xb9t\xc1B'
p6917
tp6918
bsS'SCOTTISH AND SOUTHERN ENERGY'
p6919
g2
(g3
(I0
tp6920
g5
tp6921
Rp6922
(I1
(I2
tp6923
g12
I00
S'\xae\xebd\xc1z\xbf\x16\xc2'
p6924
tp6925
bsS'VERVE ENERGY'
p6926
g2
(g3
(I0
tp6927
g5
tp6928
Rp6929
(I1
(I2
tp6930
g12
I00
S'\xc6\xfa\xa8B\xab\xb8/\xc3'
p6931
tp6932
bsS'NP'
p6933
g2
(g3
(I0
tp6934
g5
tp6935
Rp6936
(I1
(I2
tp6937
g12
I00
S'~?\xa8B\xab(\xe3A'
p6938
tp6939
bsS'GAS NATURAL FENOSA'
p6940
g2
(g3
(I0
tp6941
g5
tp6942
Rp6943
(I1
(I2
tp6944
g12
I00
S'\xf4\x9c\xba\xc2\xb6\xf6xB'
p6945
tp6946
bsS'IE'
p6947
g2
(g3
(I0
tp6948
g5
tp6949
Rp6950
(I1
(I2
tp6951
g12
I00
S'\xf9\xe6\x03\xc1\xd2\xa6UB'
p6952
tp6953
bsS'JIANGSU NUCLEAR POWER CORP'
p6954
g2
(g3
(I0
tp6955
g5
tp6956
Rp6957
(I1
(I2
tp6958
g12
I00
S")e\x10C\x90'\nC"
p6959
tp6960
bsS'VATTENFALL A/S'
p6961
g2
(g3
(I0
tp6962
g5
tp6963
Rp6964
(I1
(I2
tp6965
g12
I00
S'\x11\x92\x80\xc2\x0b\xfcpC'
p6966
tp6967
bsS'ALUMINUM BAHRAIN (ALBA)'
p6968
g2
(g3
(I0
tp6969
g5
tp6970
Rp6971
(I1
(I2
tp6972
g12
I00
S'\r\xf0\x8eCG\r\x89\xc1'
p6973
tp6974
bsS'VERBUND AG'
p6975
g2
(g3
(I0
tp6976
g5
tp6977
Rp6978
(I1
(I2
tp6979
g12
I00
S'>\xb4\xb1B[\xa4\r\xc3'
p6980
tp6981
bsS'HYDRO TASMANIA'
p6982
g2
(g3
(I0
tp6983
g5
tp6984
Rp6985
(I1
(I2
tp6986
g12
I00
S'k\xd6\x98B\x9a\xc83\xc3'
p6987
tp6988
bsS'NEW YORK STATE ELEC & GAS CORP'
p6989
g2
(g3
(I0
tp6990
g5
tp6991
Rp6992
(I1
(I2
tp6993
g12
I00
S'@\x80?\xc3\xe8\xcc\x89B'
p6994
tp6995
bsS'HAJR ELECTRICITY PRODUCTION CO'
p6996
g2
(g3
(I0
tp6997
g5
tp6998
Rp6999
(I1
(I2
tp7000
g12
I00
S'\xc4\x07XC\\\xfbbB'
p7001
tp7002
bsS'HIDROELETRICA ITUANGO SA ESP'
p7003
g2
(g3
(I0
tp7004
g5
tp7005
Rp7006
(I1
(I2
tp7007
g12
I00
S'\xc4l\x84\xc3\xd2R\xe2B'
p7008
tp7009
bsS'STADTWERKE MUNCHEN GMBH'
p7010
g2
(g3
(I0
tp7011
g5
tp7012
Rp7013
(I1
(I2
tp7014
g12
I00
S'\x9f\x13\x98\xc2\xd4\x9f\xa6\xbf'
p7015
tp7016
bsS'BANGLADESH ATOMIC ENERGY COMM'
p7017
g2
(g3
(I0
tp7018
g5
tp7019
Rp7020
(I1
(I2
tp7021
g12
I00
S'6.\xddB\xe4v[C'
p7022
tp7023
bsS'CLP POWER INDIA PVT LTD'
p7024
g2
(g3
(I0
tp7025
g5
tp7026
Rp7027
(I1
(I2
tp7028
g12
I00
S'\x8f\x84\x01C\x93r\xa7\xc2'
p7029
tp7030
bsS'INTERSTATE POWER AND LIGHT CO'
p7031
g2
(g3
(I0
tp7032
g5
tp7033
Rp7034
(I1
(I2
tp7035
g12
I00
S'\xde\x03U\xc3\x8a\xe2\xadB'
p7036
tp7037
bsS'HT'
p7038
g2
(g3
(I0
tp7039
g5
tp7040
Rp7041
(I1
(I2
tp7042
g12
I00
S'\x08\x92\x90\xc2\xfe\xc4\x97A'
p7043
tp7044
bsS'VATTENFALL WIND'
p7045
g2
(g3
(I0
tp7046
g5
tp7047
Rp7048
(I1
(I2
tp7049
g12
I00
S'\xc5\xe3+\xc2g\x05\xc6A'
p7050
tp7051
bsS'CS ENERGY CORP LTD'
p7052
g2
(g3
(I0
tp7053
g5
tp7054
Rp7055
(I1
(I2
tp7056
g12
I00
S'\xed\x19\xfaB\x03nO\xc3'
p7057
tp7058
bsS'HYDRO PLANTS ELEC PROD CO'
p7059
g2
(g3
(I0
tp7060
g5
tp7061
Rp7062
(I1
(I2
tp7063
g12
I00
S'\x040\xe7A>\xe9O\xc3'
p7064
tp7065
bsS'GP'
p7066
g2
(g3
(I0
tp7067
g5
tp7068
Rp7069
(I1
(I2
tp7070
g12
I00
S'DEx\xc2\xc0\xf7\x87A'
p7071
tp7072
bsS'HU'
p7073
g2
(g3
(I0
tp7074
g5
tp7075
Rp7076
(I1
(I2
tp7077
g12
I00
S'\xc4\x06\x9cAe\xa6<B'
p7078
tp7079
bsS'HUADIAN XINJIANG POWER CO LTD'
p7080
g2
(g3
(I0
tp7081
g5
tp7082
Rp7083
(I1
(I2
tp7084
g12
I00
S"\xb1\x19\x02C\xf7\x9b'C"
p7085
tp7086
bsS'COGENTRIX ENERGY PWR MGMT LLC'
p7087
g2
(g3
(I0
tp7088
g5
tp7089
Rp7090
(I1
(I2
tp7091
g12
I00
S'*R \xc3\x86cUB'
p7092
tp7093
bsS'SOUTHERN CALIF EDISON CO'
p7094
g2
(g3
(I0
tp7095
g5
tp7096
Rp7097
(I1
(I2
tp7098
g12
I00
S'@qK\xc3\x0b\x1f\xc2B'
p7099
tp7100
bsS'XINJIANG NONGLIUSHI COAL ELEC'
p7101
g2
(g3
(I0
tp7102
g5
tp7103
Rp7104
(I1
(I2
tp7105
g12
I00
S'NR\x19C\xfd\x9b\x03C'
p7106
tp7107
bsS'PGE ELEKTROWNIA OPOLE SA'
p7108
g2
(g3
(I0
tp7109
g5
tp7110
Rp7111
(I1
(I2
tp7112
g12
I00
S"\x8a;\xc2\xc2\xd4\xc0'C"
p7113
tp7114
bsS"OFF NATL L'ELEC L'EAU (ONEE)"
p7115
g2
(g3
(I0
tp7116
g5
tp7117
Rp7118
(I1
(I2
tp7119
g12
I00
S'\x8e\xf0+C\xd83%@'
p7120
tp7121
bsS'NABHA POWER LTD'
p7122
g2
(g3
(I0
tp7123
g5
tp7124
Rp7125
(I1
(I2
tp7126
g12
I00
S'=\xf3\x1cCK\x97\xa9\xc2'
p7127
tp7128
bsS'EMP NACIONAL DE ELEC (ENE-EP)'
p7129
g2
(g3
(I0
tp7130
g5
tp7131
Rp7132
(I1
(I2
tp7133
g12
I00
S't:\xcc\xc1\xbb+p\xc3'
p7134
tp7135
bsS'HOUSTON LIGHTING & POWER CO'
p7136
g2
(g3
(I0
tp7137
g5
tp7138
Rp7139
(I1
(I2
tp7140
g12
I00
S'\xd1b[\xc3\x8a\xdb}B'
p7141
tp7142
bsS'TAWEELAH ASIA POWER CO (TAPCO)'
p7143
g2
(g3
(I0
tp7144
g5
tp7145
Rp7146
(I1
(I2
tp7147
g12
I00
S'\xdf\r>C\x84/2\xc3'
p7148
tp7149
bsS'ITALTHAI DEVELOPMENT'
p7150
g2
(g3
(I0
tp7151
g5
tp7152
Rp7153
(I1
(I2
tp7154
g12
I00
S'1\xd6\xe4B\xb5\xfb\xb4\xc1'
p7155
tp7156
bsS'NEBRASKA PUBLIC POWER DIST'
p7157
g2
(g3
(I0
tp7158
g5
tp7159
Rp7160
(I1
(I2
tp7161
g12
I00
S'\x87\xc0`\xc3\x878\xcbB'
p7162
tp7163
bsS'EUROSIBENERGO'
p7164
g2
(g3
(I0
tp7165
g5
tp7166
Rp7167
(I1
(I2
tp7168
g12
I00
S'\xd4\xf1\x92C\xf6\xe5$B'
p7169
tp7170
bsS'BOLOGNESI PARTICIPACOES SA'
p7171
g2
(g3
(I0
tp7172
g5
tp7173
Rp7174
(I1
(I2
tp7175
g12
I00
S'\xa4\xa7\x1c\xc3\xbb\xb5\xc7\xc2'
p7176
tp7177
bsS'KW'
p7178
g2
(g3
(I0
tp7179
g5
tp7180
Rp7181
(I1
(I2
tp7182
g12
I00
S'T\xed=BH~\xeaA'
p7183
tp7184
bsS'TNB JANAMANJUNG SDN BHD'
p7185
g2
(g3
(I0
tp7186
g5
tp7187
Rp7188
(I1
(I2
tp7189
g12
I00
S'\x98\xac\x95C)\x8b\xf6@'
p7190
tp7191
bsS'KINGSUN POWER'
p7192
g2
(g3
(I0
tp7193
g5
tp7194
Rp7195
(I1
(I2
tp7196
g12
I00
S'\xc7\x15(C\xa79\x18C'
p7197
tp7198
bsS'ENTERGY LOUISIANA LLC'
p7199
g2
(g3
(I0
tp7200
g5
tp7201
Rp7202
(I1
(I2
tp7203
g12
I00
S'0\x0bH\xc3y\xdf\xc1B'
p7204
tp7205
bsS'WISCONSIN PUBLIC SERVICE CORP'
p7206
g2
(g3
(I0
tp7207
g5
tp7208
Rp7209
(I1
(I2
tp7210
g12
I00
S'_u_\xc3\xf4\xb3\xd1B'
p7211
tp7212
bsS'EDP RENEWABLE NORTH AMERICA'
p7213
g2
(g3
(I0
tp7214
g5
tp7215
Rp7216
(I1
(I2
tp7217
g12
I00
S'\xaa\x12Z\xc3\x8e\xb1\xacB'
p7218
tp7219
bsS'SHENHUA SHENWAN WANJIANG POWER'
p7220
g2
(g3
(I0
tp7221
g5
tp7222
Rp7223
(I1
(I2
tp7224
g12
I00
S'\x87\xe7%CLZ,C'
p7225
tp7226
bsS'SHANDONG ELEC POWER GROUP CORP'
p7227
g2
(g3
(I0
tp7228
g5
tp7229
Rp7230
(I1
(I2
tp7231
g12
I00
S'<R\x19C;\r\x1dC'
p7232
tp7233
bsS'VERBUND THERMAL POWER'
p7234
g2
(g3
(I0
tp7235
g5
tp7236
Rp7237
(I1
(I2
tp7238
g12
I00
S'\xdfx\xbcB\xc5\xa7\x18\xc3'
p7239
tp7240
bsS'FOREWIND'
p7241
g2
(g3
(I0
tp7242
g5
tp7243
Rp7244
(I1
(I2
tp7245
g12
I00
S'=\x9e\n\xc1\xdf0Q\xc2'
p7246
tp7247
bsS'E-CO ENERGI AS'
p7248
g2
(g3
(I0
tp7249
g5
tp7250
Rp7251
(I1
(I2
tp7252
g12
I00
S'\xf3>EBC\x84\xcaB'
p7253
tp7254
bsS'RWE INNOGY GMBH'
p7255
g2
(g3
(I0
tp7256
g5
tp7257
Rp7258
(I1
(I2
tp7259
g12
I00
S'\xf9\xfe3\xc2,\\\xb5\xc1'
p7260
tp7261
bsS'NTPC/COAL INDIA JV'
p7262
g2
(g3
(I0
tp7263
g5
tp7264
Rp7265
(I1
(I2
tp7266
g12
I00
S'\x12\xf4\x1aC\xa8bT\xc2'
p7267
tp7268
bsS'SOUTHWESTERN ELEC POWER CO'
p7269
g2
(g3
(I0
tp7270
g5
tp7271
Rp7272
(I1
(I2
tp7273
g12
I00
S'v2R\xc3\x05\x89\xb3B'
p7274
tp7275
bsS'MINNESOTA POWER'
p7276
g2
(g3
(I0
tp7277
g5
tp7278
Rp7279
(I1
(I2
tp7280
g12
I00
S'\x1a\xebV\xc3g\x9d\xebB'
p7281
tp7282
bsS'KOREA SOUTHERN POWER (KOSPO)'
p7283
g2
(g3
(I0
tp7284
g5
tp7285
Rp7286
(I1
(I2
tp7287
g12
I00
S'\x0f\xc2\x90C\x80\\\x07C'
p7288
tp7289
bsS'CM ARGENTINO-PARAGUAY R PARANA'
p7290
g2
(g3
(I0
tp7291
g5
tp7292
Rp7293
(I1
(I2
tp7294
g12
I00
S'u6"\xc3\xad\xd4e\xc3'
p7295
tp7296
bsS'COMPETITIVE POWER VENTURES INC'
p7297
g2
(g3
(I0
tp7298
g5
tp7299
Rp7300
(I1
(I2
tp7301
g12
I00
S'\xaf\x14Z\xc3\xa1\xd5\xa0B'
p7302
tp7303
bsS'KARNATAKA POWER CORP LTD'
p7304
g2
(g3
(I0
tp7305
g5
tp7306
Rp7307
(I1
(I2
tp7308
g12
I00
S'\xfd\xd4\xf9B\xc0?|\xc2'
p7309
tp7310
bsS'NIGERIA COAL PROJECTS'
p7311
g2
(g3
(I0
tp7312
g5
tp7313
Rp7314
(I1
(I2
tp7315
g12
I00
S'\x13\x82\x85\xc2Qn*\xc3'
p7316
tp7317
bsS'CO'
p7318
g2
(g3
(I0
tp7319
g5
tp7320
Rp7321
(I1
(I2
tp7322
g12
I00
S'<\x98\x94\xc2\x8dD\x92@'
p7323
tp7324
bsS'TECHNICAL UNIT HYDRO (UTIP)'
p7325
g2
(g3
(I0
tp7326
g5
tp7327
Rp7328
(I1
(I2
tp7329
g12
I00
S'\x10\x03EB\x19\x8dt\xc3'
p7330
tp7331
bsS'SCANDIA WIND LLC'
p7332
g2
(g3
(I0
tp7333
g5
tp7334
Rp7335
(I1
(I2
tp7336
g12
I00
S'6\x83c\xc3\xb3\xfb\x98B'
p7337
tp7338
bsS'PT INDONESIA POWER - SURALAYA'
p7339
g2
(g3
(I0
tp7340
g5
tp7341
Rp7342
(I1
(I2
tp7343
g12
I00
S'7a^B\x03\\\xeb\xc2'
p7344
tp7345
bsS'SK E&S CO LTD'
p7346
g2
(g3
(I0
tp7347
g5
tp7348
Rp7349
(I1
(I2
tp7350
g12
I00
S'_\xd4kC\xa6\xc5\xdeB'
p7351
tp7352
bsS'QA'
p7353
g2
(g3
(I0
tp7354
g5
tp7355
Rp7356
(I1
(I2
tp7357
g12
I00
S'L\xbcLB\xaf\xd6\xcaA'
p7358
tp7359
bsS'TZ'
p7360
g2
(g3
(I0
tp7361
g5
tp7362
Rp7363
(I1
(I2
tp7364
g12
I00
S"'\x8e\x0bB\x14\xcf\xcb\xc0"
p7365
tp7366
bsS'CM'
p7367
g2
(g3
(I0
tp7368
g5
tp7369
Rp7370
(I1
(I2
tp7371
g12
I00
S'\xf1\xacEA\xc3\xd4\xeb@'
p7372
tp7373
bsS'INFIGEN ENERGY (US) LLC'
p7374
g2
(g3
(I0
tp7375
g5
tp7376
Rp7377
(I1
(I2
tp7378
g12
I00
S'\xb23j\xc3\xab\xf0\xbeB'
p7379
tp7380
bsS'TW'
p7381
g2
(g3
(I0
tp7382
g5
tp7383
Rp7384
(I1
(I2
tp7385
g12
I00
S'\xc9\xeb\xf1B\x1d\x95\xbdA'
p7386
tp7387
bsS'ADVANCED POWER AG'
p7388
g2
(g3
(I0
tp7389
g5
tp7390
Rp7391
(I1
(I2
tp7392
g12
I00
S'\xf0:d\xc2\xed\x1d\x05\xbf'
p7393
tp7394
bsS'DOW CHEMICAL CO'
p7395
g2
(g3
(I0
tp7396
g5
tp7397
Rp7398
(I1
(I2
tp7399
g12
I00
S'\xfd\xb2d\xc3\xfc:\xabB'
p7400
tp7401
bsS'TR'
p7402
g2
(g3
(I0
tp7403
g5
tp7404
Rp7405
(I1
(I2
tp7406
g12
I00
S')\xf9\x0cB\xe0\xda\x1bB'
p7407
tp7408
bsS'ROSENERGOATOM OJSC'
p7409
g2
(g3
(I0
tp7410
g5
tp7411
Rp7412
(I1
(I2
tp7413
g12
I00
S'\n\xad\x86C\xb3\x82[B'
p7414
tp7415
bsS'SENOKO ENERGY PTE LTD'
p7416
g2
(g3
(I0
tp7417
g5
tp7418
Rp7419
(I1
(I2
tp7420
g12
I00
S'\x06\xa2\x86A$k\x14\xc3'
p7421
tp7422
bsS'E.ON ENERGIE AG'
p7423
g2
(g3
(I0
tp7424
g5
tp7425
Rp7426
(I1
(I2
tp7427
g12
I00
S'\xea\xec\x99\xc2\x8f(\x8f\xc1'
p7428
tp7429
bsS'TM'
p7430
g2
(g3
(I0
tp7431
g5
tp7432
Rp7433
(I1
(I2
tp7434
g12
I00
S'\xa19nB\xfe\xe0\x1bB'
p7435
tp7436
bsS'TJ'
p7437
g2
(g3
(I0
tp7438
g5
tp7439
Rp7440
(I1
(I2
tp7441
g12
I00
S'\\\x8d\x8eB\xb3q\x1bB'
p7442
tp7443
bsS'LONGTAN HYDROPOWER DEVELOPMENT'
p7444
g2
(g3
(I0
tp7445
g5
tp7446
Rp7447
(I1
(I2
tp7448
g12
I00
S'J\x1b\x17C\xca\xf9\x11C'
p7449
tp7450
bsS'TH'
p7451
g2
(g3
(I0
tp7452
g5
tp7453
Rp7454
(I1
(I2
tp7455
g12
I00
S'.\xfc\xc9B\xa7\xeb}A'
p7456
tp7457
bsS'ICTAS ENERJI URETIM VE TICARET'
p7458
g2
(g3
(I0
tp7459
g5
tp7460
Rp7461
(I1
(I2
tp7462
g12
I00
S')\x91\x12\xc3\xa9\xb5\xd5\xc0'
p7463
tp7464
bsS'TORRENT POWER LTD (TPGL)'
p7465
g2
(g3
(I0
tp7466
g5
tp7467
Rp7468
(I1
(I2
tp7469
g12
I00
S'\xe5y\x05C>D\xad\xc2'
p7470
tp7471
bsS'FIRSTENERGY SOLUTIONS CORP'
p7472
g2
(g3
(I0
tp7473
g5
tp7474
Rp7475
(I1
(I2
tp7476
g12
I00
S'ntN\xc3\x92\xf0\xb7B'
p7477
tp7478
bsS'TGC-02 (TERRITORIAL GEN CO 2)'
p7479
g2
(g3
(I0
tp7480
g5
tp7481
Rp7482
(I1
(I2
tp7483
g12
I00
S'\xba\x10mCX\xb3\x06B'
p7484
tp7485
bsS'IN'
p7486
g2
(g3
(I0
tp7487
g5
tp7488
Rp7489
(I1
(I2
tp7490
g12
I00
S'\xff\xec\x9dB\xdd\xbf\xa4A'
p7491
tp7492
bsS'AXPO ITALIA SPA'
p7493
g2
(g3
(I0
tp7494
g5
tp7495
Rp7496
(I1
(I2
tp7497
g12
I00
S'\xe7%\xc3\xc1`\x99\xd6\xc2'
p7498
tp7499
bsS'AE'
p7500
g2
(g3
(I0
tp7501
g5
tp7502
Rp7503
(I1
(I2
tp7504
g12
I00
S'*dWB\x82d\xbbA'
p7505
tp7506
bsS'E.ON RUSSIA'
p7507
g2
(g3
(I0
tp7508
g5
tp7509
Rp7510
(I1
(I2
tp7511
g12
I00
S'U\xb7|C#_@B'
p7512
tp7513
bsS'NRG ENERGY INC'
p7514
g2
(g3
(I0
tp7515
g5
tp7516
Rp7517
(I1
(I2
tp7518
g12
I00
S'd\xadE\xc3\x7f\xd3\xaeB'
p7519
tp7520
bsS'SHENERGY COMPANY LTD'
p7521
g2
(g3
(I0
tp7522
g5
tp7523
Rp7524
(I1
(I2
tp7525
g12
I00
S'Qw\x00C)\x9d\x1aC'
p7526
tp7527
bsS'DUKE ENERGY FLORIDA'
p7528
g2
(g3
(I0
tp7529
g5
tp7530
Rp7531
(I1
(I2
tp7532
g12
I00
S'>\rA\xc3\xd5\x17\xb3B'
p7533
tp7534
bsS'AM'
p7535
g2
(g3
(I0
tp7536
g5
tp7537
Rp7538
(I1
(I2
tp7539
g12
I00
S"\x1b'4B\xc2F B"
p7540
tp7541
bsS'AL'
p7542
g2
(g3
(I0
tp7543
g5
tp7544
Rp7545
(I1
(I2
tp7546
g12
I00
S'\xbeX\xa1A\x03\x9d$B'
p7547
tp7548
bsS'AO'
p7549
g2
(g3
(I0
tp7550
g5
tp7551
Rp7552
(I1
(I2
tp7553
g12
I00
S'\xb8\xfd\x8eA:>3\xc1'
p7554
tp7555
bsS'MOSENERGO (TGC-03)'
p7556
g2
(g3
(I0
tp7557
g5
tp7558
Rp7559
(I1
(I2
tp7560
g12
I00
S'XK\x89C\xe8\xc0\x83B'
p7561
tp7562
bsS'HIMACHAL PRADESH POWER CORP'
p7563
g2
(g3
(I0
tp7564
g5
tp7565
Rp7566
(I1
(I2
tp7567
g12
I00
S'\xea\x12 C\xce\xa8\xa0\xc2'
p7568
tp7569
bsS'SHARJAH ELEC & WATER AUTH'
p7570
g2
(g3
(I0
tp7571
g5
tp7572
Rp7573
(I1
(I2
tp7574
g12
I00
S'M93C\xb0l/\xc3'
p7575
tp7576
bsS'AR'
p7577
g2
(g3
(I0
tp7578
g5
tp7579
Rp7580
(I1
(I2
tp7581
g12
I00
S'yw~\xc2\x15\xaa\x19\xc2'
p7582
tp7583
bsS'AU'
p7584
g2
(g3
(I0
tp7585
g5
tp7586
Rp7587
(I1
(I2
tp7588
g12
I00
S'o\xc6\x05C\xf81\xca\xc1'
p7589
tp7590
bsS'AT'
p7591
g2
(g3
(I0
tp7592
g5
tp7593
Rp7594
(I1
(I2
tp7595
g12
I00
S'\x18\xcdhA\x9f\x10>B'
p7596
tp7597
bsS'TIANA POWER PROJECTS PVT LTD'
p7598
g2
(g3
(I0
tp7599
g5
tp7600
Rp7601
(I1
(I2
tp7602
g12
I00
S'\xc2*\xf7B\xccr\x95\xc2'
p7603
tp7604
bsS'CODELCO - CORP NACIONAL COBRE'
p7605
g2
(g3
(I0
tp7606
g5
tp7607
Rp7608
(I1
(I2
tp7609
g12
I00
S'[\x02F\xc3\x91+1\xc3'
p7610
tp7611
bsS'DONG ENERGY A/S'
p7612
g2
(g3
(I0
tp7613
g5
tp7614
Rp7615
(I1
(I2
tp7616
g12
I00
S'M\x7f+\xc2JW0C'
p7617
tp7618
bsS'AZ'
p7619
g2
(g3
(I0
tp7620
g5
tp7621
Rp7622
(I1
(I2
tp7623
g12
I00
S'\xc6N>B\x8a\x92 B'
p7624
tp7625
bsS'SHANXI ZHANGZE ELECTRIC POWER'
p7626
g2
(g3
(I0
tp7627
g5
tp7628
Rp7629
(I1
(I2
tp7630
g12
I00
S'\xeaO\x15C\x92\xa6&C'
p7631
tp7632
bsS'MIGHTY RIVER POWER CO LTD'
p7633
g2
(g3
(I0
tp7634
g5
tp7635
Rp7636
(I1
(I2
tp7637
g12
I00
S'\xca~\xb4C+T\x19\xc3'
p7638
tp7639
bsS'CHINA DATANG RENEW POWER CO'
p7640
g2
(g3
(I0
tp7641
g5
tp7642
Rp7643
(I1
(I2
tp7644
g12
I00
S'\xb2k\x1eC\xb0\xbc\x11C'
p7645
tp7646
bsS'KERNKRAFTWERK GREIFSWALD GMBH'
p7647
g2
(g3
(I0
tp7648
g5
tp7649
Rp7650
(I1
(I2
tp7651
g12
I00
S'\xd9\xfe\xaa\xc2\x08l\x82\xc1'
p7652
tp7653
bsS'CPFL RENOVAVEIS'
p7654
g2
(g3
(I0
tp7655
g5
tp7656
Rp7657
(I1
(I2
tp7658
g12
I00
S'?\xc1\x00\xc3X\x80\x06\xc3'
p7659
tp7660
bsS'PSEG FOSSIL LLC'
p7661
g2
(g3
(I0
tp7662
g5
tp7663
Rp7664
(I1
(I2
tp7665
g12
I00
S'\x8bwG\xc3\xd8\xf2\xa2B'
p7666
tp7667
bsS'UNISTAR NUCLEAR ENERGY LLC'
p7668
g2
(g3
(I0
tp7669
g5
tp7670
Rp7671
(I1
(I2
tp7672
g12
I00
S'gCa\xc3\x94\xfb\xaaB'
p7673
tp7674
bsS'MINISTRY ELEC POWER NO 1'
p7675
g2
(g3
(I0
tp7676
g5
tp7677
Rp7678
(I1
(I2
tp7679
g12
I00
S'\x8b\x84\x16C\xeb\xd9\xefB'
p7680
tp7681
bsS'SDIC YILI ENERGY DEV CO LTD'
p7682
g2
(g3
(I0
tp7683
g5
tp7684
Rp7685
(I1
(I2
tp7686
g12
I00
S"\x9a8,C'\xf7\x16C"
p7687
tp7688
bsS'GUODIAN LONGHUA POWER CO LTD'
p7689
g2
(g3
(I0
tp7690
g5
tp7691
Rp7692
(I1
(I2
tp7693
g12
I00
S'\xdd\xae%C\xf9\x04\x11C'
p7694
tp7695
bsS'NIZHNY NOVGOROD GENERATION CO'
p7696
g2
(g3
(I0
tp7697
g5
tp7698
Rp7699
(I1
(I2
tp7700
g12
I00
S'\xe1\xa6`CfH\xc1A'
p7701
tp7702
bsS'SINOHYDRO GANSU ENERGY INVEST'
p7703
g2
(g3
(I0
tp7704
g5
tp7705
Rp7706
(I1
(I2
tp7707
g12
I00
S'hb\x18C\xc8\xc5\tC'
p7708
tp7709
bsS'GUODIAN CHANGZHOU POWER CO LTD'
p7710
g2
(g3
(I0
tp7711
g5
tp7712
Rp7713
(I1
(I2
tp7714
g12
I00
S'\xe9}(C\xcc8\rC'
p7715
tp7716
bsS'STANWELL CORP LTD'
p7717
g2
(g3
(I0
tp7718
g5
tp7719
Rp7720
(I1
(I2
tp7721
g12
I00
S'\xaa\xf0\x9bBa\xf6*\xc3'
p7722
tp7723
bsS'DYNEGY MIDWEST GENERATION LLC'
p7724
g2
(g3
(I0
tp7725
g5
tp7726
Rp7727
(I1
(I2
tp7728
g12
I00
S'\x1f\x0bQ\xc3\xd7\xb1\xa3B'
p7729
tp7730
bsS'REMPLACEMENT SUISSE NUCLEAIRE'
p7731
g2
(g3
(I0
tp7732
g5
tp7733
Rp7734
(I1
(I2
tp7735
g12
I00
S'\xf1\xf7M\xc1x]\x12\xc3'
p7736
tp7737
bsS'TAIWAN POWER CO (TAIPOWER)'
p7738
g2
(g3
(I0
tp7739
g5
tp7740
Rp7741
(I1
(I2
tp7742
g12
I00
S'\x9a\xacVC\xd3W\x9f\xc1'
p7743
tp7744
bsS'VISA POWER LTD'
p7745
g2
(g3
(I0
tp7746
g5
tp7747
Rp7748
(I1
(I2
tp7749
g12
I00
S'\x9a\x99\nC\xd7\xbe\xaa\xc2'
p7750
tp7751
bsS'PORTLAND GENERAL ELECTRIC CO'
p7752
g2
(g3
(I0
tp7753
g5
tp7754
Rp7755
(I1
(I2
tp7756
g12
I00
S'\xaf\xb5N\xc3\xf1\x9d\x9eB'
p7757
tp7758
bsS'ESKOM'
p7759
g2
(g3
(I0
tp7760
g5
tp7761
Rp7762
(I1
(I2
tp7763
g12
I00
S'j\xf0WB@\x93A\xc3'
p7764
tp7765
bsS'AEP GENERATION RESOURCES INC'
p7766
g2
(g3
(I0
tp7767
g5
tp7768
Rp7769
(I1
(I2
tp7770
g12
I00
S'\xa6\xe1N\xc3\x87q\xafB'
p7771
tp7772
bs.