(dp0
VNATIONAL HYDRO POWER CORP
p1
cnumpy.core.multiarray
_reconstruct
p2
(cnumpy
ndarray
p3
(I0
tp4
S'b'
p5
tp6
Rp7
(I1
(I2
tp8
cnumpy
dtype
p9
(S'f4'
p10
I0
I1
tp11
Rp12
(I3
S'<'
p13
NNNI-1
I-1
I0
tp14
bI00
S'\xec\x815C\x14\x8b\xc4@'
p15
tp16
bsVATCO POWER LTD
p17
g2
(g3
(I0
tp18
g5
tp19
Rp20
(I1
(I2
tp21
g12
I00
S'\x904\x7f\xc3\x7f\x16\xe0B'
p22
tp23
bsVADVANCED POWER SA
p24
g2
(g3
(I0
tp25
g5
tp26
Rp27
(I1
(I2
tp28
g12
I00
S'\xc3*\x95\xc2\xe1Wk\xc2'
p29
tp30
bsVINST COSTARRICENSE ELEC (ICE)
p31
g2
(g3
(I0
tp32
g5
tp33
Rp34
(I1
(I2
tp35
g12
I00
S'\xc5\x9es\xc3\xd8z\xd0\xc2'
p36
tp37
bsVNO INDIANA PUBLIC SERVICE
p38
g2
(g3
(I0
tp39
g5
tp40
Rp41
(I1
(I2
tp42
g12
I00
S'\x1f\xb8:\xc3\xe2r\xb2B'
p43
tp44
bsVSEMINOLE ELECTRIC COOP INC
p45
g2
(g3
(I0
tp46
g5
tp47
Rp48
(I1
(I2
tp49
g12
I00
S'\xc1tC\xc3\xe2\xe1\x96B'
p50
tp51
bsVSOUTH CHINA UNITED POWER CO
p52
g2
(g3
(I0
tp53
g5
tp54
Rp55
(I1
(I2
tp56
g12
I00
S'po\xa2BN6\x1bC'
p57
tp58
bsVSTATE POWER CENTRAL CO
p59
g2
(g3
(I0
tp60
g5
tp61
Rp62
(I1
(I2
tp63
g12
I00
S'\x9f\n\x9dB}\x1f\x0cC'
p64
tp65
bsVGROSSKRAFTWERK MANNHEIM AG
p66
g2
(g3
(I0
tp67
g5
tp68
Rp69
(I1
(I2
tp70
g12
I00
S'7\x17\xd4\xc2\x0f\xa6w\xc2'
p71
tp72
bsVGEORGIA POWER CO
p73
g2
(g3
(I0
tp74
g5
tp75
Rp76
(I1
(I2
tp77
g12
I00
S'\xe6\x7f$\xc3\x93\x86\x84B'
p78
tp79
bsVFIRST HYDRO CO
p80
g2
(g3
(I0
tp81
g5
tp82
Rp83
(I1
(I2
tp84
g12
I00
S'\x195\x86\xc0\xd8\xf8\x80\xc2'
p85
tp86
bsVCIA PARANAENSE DE ENERGIA ELET
p87
g2
(g3
(I0
tp88
g5
tp89
Rp90
(I1
(I2
tp91
g12
I00
S'\xfe\x0cu\xc2\xbdj\xc6A'
p92
tp93
bsVORIGIN ENERGY LTD
p94
g2
(g3
(I0
tp95
g5
tp96
Rp97
(I1
(I2
tp98
g12
I00
S'ql \xc1\x1fC\xf2\xc2'
p99
tp100
bsVJIANGSU ELECTRIC POWER CORP
p101
g2
(g3
(I0
tp102
g5
tp103
Rp104
(I1
(I2
tp105
g12
I00
S'\xa1\xa6\xa4B\xd6\xbc\x12C'
p106
tp107
bsVKANSAI ELECTRIC POWER CO
p108
g2
(g3
(I0
tp109
g5
tp110
Rp111
(I1
(I2
tp112
g12
I00
S'\xea\xd9\x8dCn#\x93B'
p113
tp114
bsVJINYUAN POWER INVESTMENT CO
p115
g2
(g3
(I0
tp116
g5
tp117
Rp118
(I1
(I2
tp119
g12
I00
S'\x8d \x91B\x9b\xe8&C'
p120
tp121
bsVNATIONAL POWER CORP (NPC)
p122
g2
(g3
(I0
tp123
g5
tp124
Rp125
(I1
(I2
tp126
g12
I00
S'\xae\xc3\x1dC\x12,\xcbB'
p127
tp128
bsVBELENERGO
p129
g2
(g3
(I0
tp130
g5
tp131
Rp132
(I1
(I2
tp133
g12
I00
S'\xfap#C6$QC'
p134
tp135
bsVCENTRAL ELEC GENERATING BOARD
p136
g2
(g3
(I0
tp137
g5
tp138
Rp139
(I1
(I2
tp140
g12
I00
S'\x8a\xc7^\xc17\xbbm\xc2'
p141
tp142
bsVWULING ELECTRIC POWER CO LTD
p143
g2
(g3
(I0
tp144
g5
tp145
Rp146
(I1
(I2
tp147
g12
I00
S'\xb3\xd2\x99B\x8c\x7f\x1bC'
p148
tp149
bsVKUZBASSENERGO
p150
g2
(g3
(I0
tp151
g5
tp152
Rp153
(I1
(I2
tp154
g12
I00
S'i\x95\x8aC^lCA'
p155
tp156
bsVTYUMEN REGIONAL GENERATION CO
p157
g2
(g3
(I0
tp158
g5
tp159
Rp160
(I1
(I2
tp161
g12
I00
S'-\x17\x8dC\xd8Z\xbd\xc1'
p162
tp163
bsVPOHJOLAN VOIMA OY (PVO)
p164
g2
(g3
(I0
tp165
g5
tp166
Rp167
(I1
(I2
tp168
g12
I00
S'\x13\xd1\xbf@\x91&\x88C'
p169
tp170
bsVPT CENTRAL JAVA POWER
p171
g2
(g3
(I0
tp172
g5
tp173
Rp174
(I1
(I2
tp175
g12
I00
S'PA\xaeB\x13&\xc2\xc2'
p176
tp177
bsS'GT'
p178
g2
(g3
(I0
tp179
g5
tp180
Rp181
(I1
(I2
tp182
g12
I00
S'&v\xb4\xc2\x19\x89|A'
p183
tp184
bsVELEKTRIK URETIM AS (EUAS)
p185
g2
(g3
(I0
tp186
g5
tp187
Rp188
(I1
(I2
tp189
g12
I00
S'\xbbpA\xc2\x90\x95\x15C'
p190
tp191
bsVDUBAI ALUMINIUM CO (DUBAL)
p192
g2
(g3
(I0
tp193
g5
tp194
Rp195
(I1
(I2
tp196
g12
I00
S'\x03\xcf\xa1Ag*\xf9\xc2'
p197
tp198
bsVXINJIANG ELECTRIC POWER CO
p199
g2
(g3
(I0
tp200
g5
tp201
Rp202
(I1
(I2
tp203
g12
I00
S'~\x11\x8fB\x9d\xe0"C'
p204
tp205
bsVASHMORE ENERGY INTERNATIONAL
p206
g2
(g3
(I0
tp207
g5
tp208
Rp209
(I1
(I2
tp210
g12
I00
S'\xaa\xa5\xb9B/\xf52A'
p211
tp212
bsVWEST DELTA ELEC PRODUCTION CO
p213
g2
(g3
(I0
tp214
g5
tp215
Rp216
(I1
(I2
tp217
g12
I00
S'm\xea\xa9B\x1c\x1a\x16\xc3'
p218
tp219
bsVHYDROOGK
p220
g2
(g3
(I0
tp221
g5
tp222
Rp223
(I1
(I2
tp224
g12
I00
S'\x16\xed{Ca\xf6\x0b\xc0'
p225
tp226
bsVEMP PUBLICAS MEDELLIN (EEPPM)
p227
g2
(g3
(I0
tp228
g5
tp229
Rp230
(I1
(I2
tp231
g12
I00
S'dcL\xc3Q\x0b\xfd\xc2'
p232
tp233
bsS'GE'
p234
g2
(g3
(I0
tp235
g5
tp236
Rp237
(I1
(I2
tp238
g12
I00
S'um-B\xfaB)B'
p239
tp240
bsVDUBAI ELEC & WATER AUTH (DEWA)
p241
g2
(g3
(I0
tp242
g5
tp243
Rp244
(I1
(I2
tp245
g12
I00
S'\x1d\xbe\xdfB\xb7\xa4\x12\xc3'
p246
tp247
bsVGUJARAT URJA VIKAS NIGAM LTD
p248
g2
(g3
(I0
tp249
g5
tp250
Rp251
(I1
(I2
tp252
g12
I00
S'i`4CM\xf2\xdd>'
p253
tp254
bsS'GB'
p255
g2
(g3
(I0
tp256
g5
tp257
Rp258
(I1
(I2
tp259
g12
I00
S'\xfb\xe6[\xc0 \x83]B'
p260
tp261
bsVPT INDONESIA POWER
p262
g2
(g3
(I0
tp263
g5
tp264
Rp265
(I1
(I2
tp266
g12
I00
S'\xd29\xcaB\xa4\xcf\x9c\xc2'
p267
tp268
bsS'GH'
p269
g2
(g3
(I0
tp270
g5
tp271
Rp272
(I1
(I2
tp273
g12
I00
S'\x05\xf8\x82\xbf\xf3I\xfe@'
p274
tp275
bsVBANGLADESH POWER DEV BOARD
p276
g2
(g3
(I0
tp277
g5
tp278
Rp279
(I1
(I2
tp280
g12
I00
S'\xc8h*C\x8c\xa6\xfaB'
p281
tp282
bsVAES CHINA
p283
g2
(g3
(I0
tp284
g5
tp285
Rp286
(I1
(I2
tp287
g12
I00
S'\xdb0\x92BL\x19\x1eC'
p288
tp289
bsVEDF ENERGY PLC
p290
g2
(g3
(I0
tp291
g5
tp292
Rp293
(I1
(I2
tp294
g12
I00
S'\xb8\xfa,AtMX\xc2'
p295
tp296
bsVIBERDROLA RENOVABLES
p297
g2
(g3
(I0
tp298
g5
tp299
Rp300
(I1
(I2
tp301
g12
I00
S'\r"\x8b\xc2\x08X\x92\xc2'
p302
tp303
bsVELECTRABEL SA
p304
g2
(g3
(I0
tp305
g5
tp306
Rp307
(I1
(I2
tp308
g12
I00
S'\xfa\x05\xee\xc1\xee\xf1\x00\xc3'
p309
tp310
bsVBOT ELEKTROWNIA TUROW SA
p311
g2
(g3
(I0
tp312
g5
tp313
Rp314
(I1
(I2
tp315
g12
I00
S'\x93\xb1\xd9\xc2\x94\xab\xd9\xc2'
p316
tp317
bsVKOREA EAST-WEST POWER CO
p318
g2
(g3
(I0
tp319
g5
tp320
Rp321
(I1
(I2
tp322
g12
I00
S'Cb\x86C\xe5U\x05C'
p323
tp324
bsVBOT ELEKTROWNIA BELCHATOW SA
p325
g2
(g3
(I0
tp326
g5
tp327
Rp328
(I1
(I2
tp329
g12
I00
S'{\x8b\xd3\xc23U\xc2\xc2'
p330
tp331
bsVBARKI TOJIK
p332
g2
(g3
(I0
tp333
g5
tp334
Rp335
(I1
(I2
tp336
g12
I00
S'\xdb\rZC\xa2\xdb\x0eC'
p337
tp338
bsVAUSTIN ENERGY
p339
g2
(g3
(I0
tp340
g5
tp341
Rp342
(I1
(I2
tp343
g12
I00
S'\x9c\xa9F\xc3\xa1Z\x9bB'
p344
tp345
bsVENEL SPA
p346
g2
(g3
(I0
tp347
g5
tp348
Rp349
(I1
(I2
tp350
g12
I00
S'\xcdR\x15B3\xa2\x9a\xc2'
p351
tp352
bsVPT PLN IPP
p353
g2
(g3
(I0
tp354
g5
tp355
Rp356
(I1
(I2
tp357
g12
I00
S'+\xab\x9dB,\x11\xb9\xc2'
p358
tp359
bsVHUITAOXIA HYDROELECTRIC PROJ
p360
g2
(g3
(I0
tp361
g5
tp362
Rp363
(I1
(I2
tp364
g12
I00
S'\xbd\xdf\x88B\xc8z(C'
p365
tp366
bsVTATENERGO
p367
g2
(g3
(I0
tp368
g5
tp369
Rp370
(I1
(I2
tp371
g12
I00
S'h\xda\x87C\xe4P\xd4\xc0'
p372
tp373
bsVWE ENERGIES
p374
g2
(g3
(I0
tp375
g5
tp376
Rp377
(I1
(I2
tp378
g12
I00
S'\x8bM@\xc3\xad9\x8dB'
p379
tp380
bsVTIANJIN BEIJIANG POWER PLANT
p381
g2
(g3
(I0
tp382
g5
tp383
Rp384
(I1
(I2
tp385
g12
I00
S'\xce8\x98BI\xd2"C'
p386
tp387
bsVAMERENUE
p388
g2
(g3
(I0
tp389
g5
tp390
Rp391
(I1
(I2
tp392
g12
I00
S'\xd4\xd3)\xc37\xac\xb2B'
p393
tp394
bsVNEVADA POWER CO
p395
g2
(g3
(I0
tp396
g5
tp397
Rp398
(I1
(I2
tp399
g12
I00
S'\x9d\x1e:\xc3\xc5<\xa4B'
p400
tp401
bsVGUANGDONG ELEC POWER DEV CO
p402
g2
(g3
(I0
tp403
g5
tp404
Rp405
(I1
(I2
tp406
g12
I00
S'u\x93\x9bB\xa2\xfa\x10C'
p407
tp408
bsVKELSON HOLDINGS LLC
p409
g2
(g3
(I0
tp410
g5
tp411
Rp412
(I1
(I2
tp413
g12
I00
S'A\xf2:\xc3L\xdc@B'
p414
tp415
bsVASSOCIATED ELECTRIC COOP INC
p416
g2
(g3
(I0
tp417
g5
tp418
Rp419
(I1
(I2
tp420
g12
I00
S'\x19\xca1\xc3\xb4\xcd9B'
p421
tp422
bsVLANCO GROUP
p423
g2
(g3
(I0
tp424
g5
tp425
Rp426
(I1
(I2
tp427
g12
I00
S'L_=C\x16#\x98A'
p428
tp429
bsVTNB GENERATION SDN BHD
p430
g2
(g3
(I0
tp431
g5
tp432
Rp433
(I1
(I2
tp434
g12
I00
S'\xaa?jCF\xcb\xb5B'
p435
tp436
bsVMINISTRY OF ELECTRICITY (IQ)
p437
g2
(g3
(I0
tp438
g5
tp439
Rp440
(I1
(I2
tp441
g12
I00
S'\xd5+$C]@\xba\xc2'
p442
tp443
bsVFPL ENERGY LLC
p444
g2
(g3
(I0
tp445
g5
tp446
Rp447
(I1
(I2
tp448
g12
I00
S'\xd4\xff/\xc3wi\xa4B'
p449
tp450
bsVPUBLIC SERVICE CO OF OKLAHOMA
p451
g2
(g3
(I0
tp452
g5
tp453
Rp454
(I1
(I2
tp455
g12
I00
S'\xf6\x80&\xc3}<7B'
p456
tp457
bsVOHIO POWER CO
p458
g2
(g3
(I0
tp459
g5
tp460
Rp461
(I1
(I2
tp462
g12
I00
S'\xc7\xac;\xc3\x8f\xa2\x8bB'
p463
tp464
bsVNUON NV
p465
g2
(g3
(I0
tp466
g5
tp467
Rp468
(I1
(I2
tp469
g12
I00
S'\\4;B8\xdc}\xc2'
p470
tp471
bsVELECTRICITE DE LIBAN
p472
g2
(g3
(I0
tp473
g5
tp474
Rp475
(I1
(I2
tp476
g12
I00
S'\x9d\xddDC~\xe7\x16C'
p477
tp478
bsVCEZ AS
p479
g2
(g3
(I0
tp480
g5
tp481
Rp482
(I1
(I2
tp483
g12
I00
S'\xd8y-\xc2/\xa1\xb9\xc2'
p484
tp485
bsVKONAKOVO SDPP
p486
g2
(g3
(I0
tp487
g5
tp488
Rp489
(I1
(I2
tp490
g12
I00
S'\x8c\xc4\x8eC\xd8V\x89\xc1'
p491
tp492
bsVKAWASAKI NATURAL GAS GEN CO
p493
g2
(g3
(I0
tp494
g5
tp495
Rp496
(I1
(I2
tp497
g12
I00
S'\xa2\xfd\x8fCl\xc5\xf5A'
p498
tp499
bsVSACRAMENTO MUNI UTILITY DIST
p500
g2
(g3
(I0
tp501
g5
tp502
Rp503
(I1
(I2
tp504
g12
I00
S'\x81\xd1D\xc3\xf8\xabnB'
p505
tp506
bsVVIETNAM ATOMIC ENERGY COMM
p507
g2
(g3
(I0
tp508
g5
tp509
Rp510
(I1
(I2
tp511
g12
I00
S'\x0e\x15tC\x9bK\x01\xc3'
p512
tp513
bsVRWE POWER AG
p514
g2
(g3
(I0
tp515
g5
tp516
Rp517
(I1
(I2
tp518
g12
I00
S'\xcd\xaf\xab\xc2\xac\x1aF\xc2'
p519
tp520
bsVGUOHUA ELECTRIC POWER CORP
p521
g2
(g3
(I0
tp522
g5
tp523
Rp524
(I1
(I2
tp525
g12
I00
S'\x9c{ZB\xd4\xf4\x0cC'
p526
tp527
bsS'ZA'
p528
g2
(g3
(I0
tp529
g5
tp530
Rp531
(I1
(I2
tp532
g12
I00
S'\x03\x80\xb7A\xd2y\xf4\xc1'
p533
tp534
bsVFIRST GEN CORP
p535
g2
(g3
(I0
tp536
g5
tp537
Rp538
(I1
(I2
tp539
g12
I00
S't\xa2\x18C\x10,\xdfB'
p540
tp541
bsVOGK-4 (FOURTH GENERATION CO)
p542
g2
(g3
(I0
tp543
g5
tp544
Rp545
(I1
(I2
tp546
g12
I00
S'\x97u\x86C|\x0bLA'
p547
tp548
bsVMINISTRY OF ENERGY (BY)
p549
g2
(g3
(I0
tp550
g5
tp551
Rp552
(I1
(I2
tp553
g12
I00
S'W\xb0\x19C\x92BcC'
p554
tp555
bsVPUNJAB STATE ELECTRICITY BOARD
p556
g2
(g3
(I0
tp557
g5
tp558
Rp559
(I1
(I2
tp560
g12
I00
S'>j:C\x93\xa7\x18A'
p561
tp562
bsVENBW KERNKRAFT GMBH
p563
g2
(g3
(I0
tp564
g5
tp565
Rp566
(I1
(I2
tp567
g12
I00
S'tc\xc0\xc2\xf5\xb9q\xc2'
p568
tp569
bsVNORTHEAST CHINA ELEC POWER
p570
g2
(g3
(I0
tp571
g5
tp572
Rp573
(I1
(I2
tp574
g12
I00
S'\xdb\xa7\xa4Be\xd2\rC'
p575
tp576
bsS'ME'
p577
g2
(g3
(I0
tp578
g5
tp579
Rp580
(I1
(I2
tp581
g12
I00
S'\xc0\xfe\x9aA\xb0\xd5*B'
p582
tp583
bsS'MD'
p584
g2
(g3
(I0
tp585
g5
tp586
Rp587
(I1
(I2
tp588
g12
I00
S'\x86\xf5\xe2A\x83\xa5=B'
p589
tp590
bsVJ&K STATE POWER DEV CORP LTD
p591
g2
(g3
(I0
tp592
g5
tp593
Rp594
(I1
(I2
tp595
g12
I00
S'(I>C\x93U\xd1A'
p596
tp597
bsS'MA'
p598
g2
(g3
(I0
tp599
g5
tp600
Rp601
(I1
(I2
tp602
g12
I00
S'\xbe\xf6\xe2\xc0hU\xfeA'
p603
tp604
bsVYELLOW RIVER HYDROPOWER DEV
p605
g2
(g3
(I0
tp606
g5
tp607
Rp608
(I1
(I2
tp609
g12
I00
S'\xd0\x88\x93B\rc\x18C'
p610
tp611
bsS'MM'
p612
g2
(g3
(I0
tp613
g5
tp614
Rp615
(I1
(I2
tp616
g12
I00
S'\x96\xe9\xbfB\xcdO\xafA'
p617
tp618
bsS'SG'
p619
g2
(g3
(I0
tp620
g5
tp621
Rp622
(I1
(I2
tp623
g12
I00
S'\xc2\xa3\xcfB\x0e\x11\xad?'
p624
tp625
bsVPROGRESS ENERGY FLORIDA
p626
g2
(g3
(I0
tp627
g5
tp628
Rp629
(I1
(I2
tp630
g12
I00
S'k\xe32\xc3k\xe4{B'
p631
tp632
bsVSHELL WINDENERGY INC
p633
g2
(g3
(I0
tp634
g5
tp635
Rp636
(I1
(I2
tp637
g12
I00
S'\xe1}?\xc3G\xca\x94B'
p638
tp639
bsVSICHUAN ELECTRIC POWER CORP
p640
g2
(g3
(I0
tp641
g5
tp642
Rp643
(I1
(I2
tp644
g12
I00
S'\x9d\xc4\x9dB\x01\x99\x1fC'
p645
tp646
bsS'MY'
p647
g2
(g3
(I0
tp648
g5
tp649
Rp650
(I1
(I2
tp651
g12
I00
S'\x98\xf3\xcbBI\xbc\x86@'
p652
tp653
bsS'MX'
p654
g2
(g3
(I0
tp655
g5
tp656
Rp657
(I1
(I2
tp658
g12
I00
S'\x07\x1b\xcd\xc2u\x13\xbdA'
p659
tp660
bsVSALINE WATER CONVERSION CORP
p661
g2
(g3
(I0
tp662
g5
tp663
Rp664
(I1
(I2
tp665
g12
I00
S'P\xf4q@\xf5}HC'
p666
tp667
bsVKOREAN PENINSULA ENERGY DEV
p668
g2
(g3
(I0
tp669
g5
tp670
Rp671
(I1
(I2
tp672
g12
I00
S'i\x1e\xa6Cgu\x9dB'
p673
tp674
bsS'FR'
p675
g2
(g3
(I0
tp676
g5
tp677
Rp678
(I1
(I2
tp679
g12
I00
S'\x10\xae\r@\x1a\xe98B'
p680
tp681
bsVSCOTTISHPOWER PLC
p682
g2
(g3
(I0
tp683
g5
tp684
Rp685
(I1
(I2
tp686
g12
I00
S'\xc0+w\xc1\x10^\xa0\xc1'
p687
tp688
bsVNEWFOUNDLAND & LABRADOR HYDRO
p689
g2
(g3
(I0
tp690
g5
tp691
Rp692
(I1
(I2
tp693
g12
I00
S'#\x8c@\xc3\r\x10\x00C'
p694
tp695
bsVTUCSON ELECTRIC POWER CO
p696
g2
(g3
(I0
tp697
g5
tp698
Rp699
(I1
(I2
tp700
g12
I00
S'a\xc2D\xc3X\x1b\x87B'
p701
tp702
bsVSASKPOWER
p703
g2
(g3
(I0
tp704
g5
tp705
Rp706
(I1
(I2
tp707
g12
I00
S'_l\x81\xc3yP\xd2B'
p708
tp709
bsS'ET'
p710
g2
(g3
(I0
tp711
g5
tp712
Rp713
(I1
(I2
tp714
g12
I00
S'm\xf5!B\xecQ\x12A'
p715
tp716
bsS'FI'
p717
g2
(g3
(I0
tp718
g5
tp719
Rp720
(I1
(I2
tp721
g12
I00
S'7\xfc\xcdAJ\xb2wB'
p722
tp723
bsVSN NUCLEARELECTRICA
p724
g2
(g3
(I0
tp725
g5
tp726
Rp727
(I1
(I2
tp728
g12
I00
S'B\xa0\x0fCkJZC'
p729
tp730
bsVIBERDROLA SA
p731
g2
(g3
(I0
tp732
g5
tp733
Rp734
(I1
(I2
tp735
g12
I00
S'sQp\xc2\xd3y\x90\xc2'
p736
tp737
bsVDATANG SHAANXI POWER GEN CO
p738
g2
(g3
(I0
tp739
g5
tp740
Rp741
(I1
(I2
tp742
g12
I00
S'\xd3\xf6\xa3B\xb0\x08\x17C'
p743
tp744
bsVJOETSU CO-OP THERMAL POWER CO
p745
g2
(g3
(I0
tp746
g5
tp747
Rp748
(I1
(I2
tp749
g12
I00
S'k*\x93Co\n\x81B'
p750
tp751
bsVINDECK ENERGY SERVICES
p752
g2
(g3
(I0
tp753
g5
tp754
Rp755
(I1
(I2
tp756
g12
I00
S'-\x90?\xc3@\xe2\x86B'
p757
tp758
bsVCHINA THREE GORGES PROJ CORP
p759
g2
(g3
(I0
tp760
g5
tp761
Rp762
(I1
(I2
tp763
g12
I00
S']\xed_B\x9cg\x08C'
p764
tp765
bsVCESC LIMITED
p766
g2
(g3
(I0
tp767
g5
tp768
Rp769
(I1
(I2
tp770
g12
I00
S'`\xda8C\xb1=oA'
p771
tp772
bsVOLD DOMINION ELEC COOP
p773
g2
(g3
(I0
tp774
g5
tp775
Rp776
(I1
(I2
tp777
g12
I00
S'e\xe6G\xc3\xae\x88\x8cB'
p778
tp779
bsVBOT ELEKTROWNIA OPOLE SA
p780
g2
(g3
(I0
tp781
g5
tp782
Rp783
(I1
(I2
tp784
g12
I00
S'\xd4v\xef\xc2\x8dM\xc4\xc2'
p785
tp786
bsVCONTACT ENERGY LTD
p787
g2
(g3
(I0
tp788
g5
tp789
Rp790
(I1
(I2
tp791
g12
I00
S'\xc4\xc0\xa3C\x8au\x0c\xc3'
p792
tp793
bsVDUKE ENERGY CAROLINAS LLC
p794
g2
(g3
(I0
tp795
g5
tp796
Rp797
(I1
(I2
tp798
g12
I00
S'\xd8\x000\xc3\xb5f\x99B'
p799
tp800
bsVTRIANEL EUROPEAN ENRGY TRADING
p801
g2
(g3
(I0
tp802
g5
tp803
Rp804
(I1
(I2
tp805
g12
I00
S'\x0f\xe4\xd4\xc2_\xee\x8c\xc2'
p806
tp807
bsVSC TERMOELECTRICA SA
p808
g2
(g3
(I0
tp809
g5
tp810
Rp811
(I1
(I2
tp812
g12
I00
S'O\x8e\x0fC\x0c`CC'
p813
tp814
bsVSOUTH CAROLINA ELEC & GAS CO
p815
g2
(g3
(I0
tp816
g5
tp817
Rp818
(I1
(I2
tp819
g12
I00
S'v\xa5\x1e\xc3\xf1+jB'
p820
tp821
bsVNORTHERN STATES POWER CO (MN)
p822
g2
(g3
(I0
tp823
g5
tp824
Rp825
(I1
(I2
tp826
g12
I00
S'\xb9\xc3=\xc3\x835\x7fB'
p827
tp828
bsVAPPALACHIAN POWER CO
p829
g2
(g3
(I0
tp830
g5
tp831
Rp832
(I1
(I2
tp833
g12
I00
S'\xd1Z1\xc3,\x90YB'
p834
tp835
bsVKGEN POWER MANAGEMENT INC
p836
g2
(g3
(I0
tp837
g5
tp838
Rp839
(I1
(I2
tp840
g12
I00
S'\x18\\3\xc3!s\x1bB'
p841
tp842
bsVSWB AG
p843
g2
(g3
(I0
tp844
g5
tp845
Rp846
(I1
(I2
tp847
g12
I00
S'q\xac\xc5\xc2\x98P\x90\xc2'
p848
tp849
bsVPETROBRAS
p850
g2
(g3
(I0
tp851
g5
tp852
Rp853
(I1
(I2
tp854
g12
I00
S'#\xb3B\xc2\xe4\x93CA'
p855
tp856
bsVSOUTHERN POWER CO
p857
g2
(g3
(I0
tp858
g5
tp859
Rp860
(I1
(I2
tp861
g12
I00
S'\x97\x1b8\xc3\x80\t\x91B'
p862
tp863
bsVAES KAZAKHSTAN
p864
g2
(g3
(I0
tp865
g5
tp866
Rp867
(I1
(I2
tp868
g12
I00
S';<uC\xbaM\xd0A'
p869
tp870
bsVCERS MOLDOVA
p871
g2
(g3
(I0
tp872
g5
tp873
Rp874
(I1
(I2
tp875
g12
I00
S'|\xf6\xbb\xc1u\x17wC'
p876
tp877
bsVSHENZHEN GENERAL POWER CORP
p878
g2
(g3
(I0
tp879
g5
tp880
Rp881
(I1
(I2
tp882
g12
I00
S'*\x17\x9bB"\x9f\x15C'
p883
tp884
bsVSMITH COGENERATION INTL INC
p885
g2
(g3
(I0
tp886
g5
tp887
Rp888
(I1
(I2
tp889
g12
I00
S'\xa3\x95\x1d\xc2w7\x96B'
p890
tp891
bsVCONSTELLATION ENERGY GEN GRP
p892
g2
(g3
(I0
tp893
g5
tp894
Rp895
(I1
(I2
tp896
g12
I00
S'\xb0\x9cE\xc3\x02G\xa6B'
p897
tp898
bsVUNELCO-ENDESA
p899
g2
(g3
(I0
tp900
g5
tp901
Rp902
(I1
(I2
tp903
g12
I00
S'M<\x9e\xc2\xbb=\xd6\xc2'
p904
tp905
bsVJEA
p906
g2
(g3
(I0
tp907
g5
tp908
Rp909
(I1
(I2
tp910
g12
I00
S'Ek2\xc3\xe90\x9fB'
p911
tp912
bsVSHANGHAI ELECTRIC POWER CO LTD
p913
g2
(g3
(I0
tp914
g5
tp915
Rp916
(I1
(I2
tp917
g12
I00
S'\xcf$\x96B\xdc\xe7\x07C'
p918
tp919
bsVTORRENT POWER LTD (TPGL)
p920
g2
(g3
(I0
tp921
g5
tp922
Rp923
(I1
(I2
tp924
g12
I00
S'\xe6|.C\x06\xe7\x11A'
p925
tp926
bsVTATA POWER CO LTD
p927
g2
(g3
(I0
tp928
g5
tp929
Rp930
(I1
(I2
tp931
g12
I00
S'\xee\xcc\x15C\xc02\nB'
p932
tp933
bsVINDIAN FARMERS FERTILISER COOP
p934
g2
(g3
(I0
tp935
g5
tp936
Rp937
(I1
(I2
tp938
g12
I00
S'\xc0\x9f C\x88\x1e\x17@'
p939
tp940
bsVENTEGRA POWER GROUP LLC
p941
g2
(g3
(I0
tp942
g5
tp943
Rp944
(I1
(I2
tp945
g12
I00
S'\xbe\x8a#\xc3^\xedBB'
p946
tp947
bsVSHANXI LUJIN WANGQU POWER GEN
p948
g2
(g3
(I0
tp949
g5
tp950
Rp951
(I1
(I2
tp952
g12
I00
S'U\x85{B\xa4\x04\x1fC'
p953
tp954
bsVNORSK HYDRO A/S
p955
g2
(g3
(I0
tp956
g5
tp957
Rp958
(I1
(I2
tp959
g12
I00
S'`\x0b\xca\xc2\x03q(C'
p960
tp961
bsS'SY'
p962
g2
(g3
(I0
tp963
g5
tp964
Rp965
(I1
(I2
tp966
g12
I00
S'\xbd\xfc\x1bBS5\x0bB'
p967
tp968
bsVENTERGY MISSISSIPPI INC
p969
g2
(g3
(I0
tp970
g5
tp971
Rp972
(I1
(I2
tp973
g12
I00
S'\xb2 0\xc3\x07\xad\xb6B'
p974
tp975
bsVENEL VIESGO
p976
g2
(g3
(I0
tp977
g5
tp978
Rp979
(I1
(I2
tp980
g12
I00
S'\x0e9\x85\xc25\n\xd4\xc2'
p981
tp982
bsVUNION FENOSA SA
p983
g2
(g3
(I0
tp984
g5
tp985
Rp986
(I1
(I2
tp987
g12
I00
S'\xa4\x84u\xc2\xe4\x11\xc2\xc2'
p988
tp989
bsVPOWER HOLDING CO OF NIGERIA
p990
g2
(g3
(I0
tp991
g5
tp992
Rp993
(I1
(I2
tp994
g12
I00
S'\xac\x00\x12\xc2\x021\x14\xc3'
p995
tp996
bsVJAPAN ATOMIC POWER CO (JAPC)
p997
g2
(g3
(I0
tp998
g5
tp999
Rp1000
(I1
(I2
tp1001
g12
I00
S'<\xcc\x8dCZJwB'
p1002
tp1003
bsVKERMAN REGIONAL ELEC POWER CO
p1004
g2
(g3
(I0
tp1005
g5
tp1006
Rp1007
(I1
(I2
tp1008
g12
I00
S'k\xdf\x88B\xdf\xc5zC'
p1009
tp1010
bsVGMR GROUP
p1011
g2
(g3
(I0
tp1012
g5
tp1013
Rp1014
(I1
(I2
tp1015
g12
I00
S'\xfa\n2C3\x84\xa0A'
p1016
tp1017
bsVEPCOR GENERATION INC
p1018
g2
(g3
(I0
tp1019
g5
tp1020
Rp1021
(I1
(I2
tp1022
g12
I00
S'\x82\xc3{\xc3\x81d\xedB'
p1023
tp1024
bsS'SA'
p1025
g2
(g3
(I0
tp1026
g5
tp1027
Rp1028
(I1
(I2
tp1029
g12
I00
S'\x10Q4Bi\x16\xbfA'
p1030
tp1031
bsVCHINA PETRO & CHEM (SINOPEC)
p1032
g2
(g3
(I0
tp1033
g5
tp1034
Rp1035
(I1
(I2
tp1036
g12
I00
S'-\x04\x87B\xf4\xc8\x1fC'
p1037
tp1038
bsS'SE'
p1039
g2
(g3
(I0
tp1040
g5
tp1041
Rp1042
(I1
(I2
tp1043
g12
I00
S'\xe4%\x95A=\x83pB'
p1044
tp1045
bsS'SD'
p1046
g2
(g3
(I0
tp1047
g5
tp1048
Rp1049
(I1
(I2
tp1050
g12
I00
S'\xb8\xbd\xf1A\x0f\xceMA'
p1051
tp1052
bsVAP POWER DEVELOPMENT CO
p1053
g2
(g3
(I0
tp1054
g5
tp1055
Rp1056
(I1
(I2
tp1057
g12
I00
S'\xa8%(C\xab|\xa9A'
p1058
tp1059
bsVELECTRABEL DEUTSCHLAND AG
p1060
g2
(g3
(I0
tp1061
g5
tp1062
Rp1063
(I1
(I2
tp1064
g12
I00
S'{\xcc\xb6\xc2r\x19\x89\xc2'
p1065
tp1066
bsVSAMARAENERGO
p1067
g2
(g3
(I0
tp1068
g5
tp1069
Rp1070
(I1
(I2
tp1071
g12
I00
S'\xa3\xc6\x8bCW\xbc3\xc1'
p1072
tp1073
bsVTARONG ENERGY CORP LTD
p1074
g2
(g3
(I0
tp1075
g5
tp1076
Rp1077
(I1
(I2
tp1078
g12
I00
S'\x88\x9eV\xc1\xd5[\xe0\xc2'
p1079
tp1080
bsVINDIANA MICHIGAN POWER CO
p1081
g2
(g3
(I0
tp1082
g5
tp1083
Rp1084
(I1
(I2
tp1085
g12
I00
S'4j,\xc3\xc6\x13\xadB'
p1086
tp1087
bsVNUCLEAR POWER CORP INDIA
p1088
g2
(g3
(I0
tp1089
g5
tp1090
Rp1091
(I1
(I2
tp1092
g12
I00
S'1L\x13C\xc0\xba\xf3@'
p1093
tp1094
bsVEAST KENTUCKY POWER COOP INC
p1095
g2
(g3
(I0
tp1096
g5
tp1097
Rp1098
(I1
(I2
tp1099
g12
I00
S'\xc4\xcd6\xc3L:\xb0B'
p1100
tp1101
bsVLOUISVILLE GAS & ELEC CO
p1102
g2
(g3
(I0
tp1103
g5
tp1104
Rp1105
(I1
(I2
tp1106
g12
I00
S'\xc3\x1b%\xc3\xfc\x1f\xa9B'
p1107
tp1108
bsVMALAKOFF BHD
p1109
g2
(g3
(I0
tp1110
g5
tp1111
Rp1112
(I1
(I2
tp1113
g12
I00
S'\x9c2vC\xaa\xe5\xbbB'
p1114
tp1115
bsVFORTUM GENERATION AB
p1116
g2
(g3
(I0
tp1117
g5
tp1118
Rp1119
(I1
(I2
tp1120
g12
I00
S'\x9d\x81\x8f?XbtC'
p1121
tp1122
bsS'GR'
p1123
g2
(g3
(I0
tp1124
g5
tp1125
Rp1126
(I1
(I2
tp1127
g12
I00
S'1\x98\xaeA\xfdK\x1cB'
p1128
tp1129
bsVALLEGHENY ENERGY SUPPLY CO LLC
p1130
g2
(g3
(I0
tp1131
g5
tp1132
Rp1133
(I1
(I2
tp1134
g12
I00
S'\x9aR\x1e\xc3\x89\xde\x99B'
p1135
tp1136
bsVGUIZHOU FAER POWER PLANT
p1137
g2
(g3
(I0
tp1138
g5
tp1139
Rp1140
(I1
(I2
tp1141
g12
I00
S'\xd61dB\x88D\x1dC'
p1142
tp1143
bsS'LB'
p1144
g2
(g3
(I0
tp1145
g5
tp1146
Rp1147
(I1
(I2
tp1148
g12
I00
S'\xfbr\x0fB<k\x07B'
p1149
tp1150
bsVSOCIETE NATIONALE D'ELEC
p1151
g2
(g3
(I0
tp1152
g5
tp1153
Rp1154
(I1
(I2
tp1155
g12
I00
S'\x04\xfd\x83@\xac\x93B\xc3'
p1156
tp1157
bsVALUMINUM BAHRAIN ((ALBA)
p1158
g2
(g3
(I0
tp1159
g5
tp1160
Rp1161
(I1
(I2
tp1162
g12
I00
S'\xd5\x05\xc1A\xb9QnC'
p1163
tp1164
bsVBRITISH ENERGY GROUP PLC
p1165
g2
(g3
(I0
tp1166
g5
tp1167
Rp1168
(I1
(I2
tp1169
g12
I00
S'\x1b\xb65?\xb8!>\xc2'
p1170
tp1171
bsVAES ARGENTINA
p1172
g2
(g3
(I0
tp1173
g5
tp1174
Rp1175
(I1
(I2
tp1176
g12
I00
S'r\x84"\xc3\x80\xc4H\xc3'
p1177
tp1178
bsS'LK'
p1179
g2
(g3
(I0
tp1180
g5
tp1181
Rp1182
(I1
(I2
tp1183
g12
I00
S')\x8b\xa1B\x0f\xf0\xfb@'
p1184
tp1185
bsVENTERGY INTERNATIONAL HOLDINGS
p1186
g2
(g3
(I0
tp1187
g5
tp1188
Rp1189
(I1
(I2
tp1190
g12
I00
S'(\x08G\xc2\xad\xe7D\xc2'
p1191
tp1192
bsS'LT'
p1193
g2
(g3
(I0
tp1194
g5
tp1195
Rp1196
(I1
(I2
tp1197
g12
I00
S'\xda\x0c\xbfA\x81\xad\\B'
p1198
tp1199
bsVKOREA-CHINA HYDROELEC POWER
p1200
g2
(g3
(I0
tp1201
g5
tp1202
Rp1203
(I1
(I2
tp1204
g12
I00
S'j\xe5\xa2C\x1f\r\xc0B'
p1205
tp1206
bsVCOMP NATIONALE DU RHONE
p1207
g2
(g3
(I0
tp1208
g5
tp1209
Rp1210
(I1
(I2
tp1211
g12
I00
S'\xc4]\xb1\xc2\xac\xf4JC'
p1212
tp1213
bsVUZBEKENERGO
p1214
g2
(g3
(I0
tp1215
g5
tp1216
Rp1217
(I1
(I2
tp1218
g12
I00
S'9\x9b\x19C\xd2\x8fRC'
p1219
tp1220
bsVDAGANGSHAN HYDROELECTRIC PROJ
p1221
g2
(g3
(I0
tp1222
g5
tp1223
Rp1224
(I1
(I2
tp1225
g12
I00
S'\xc7\xa6\x86B\x96\xf1\x1aC'
p1226
tp1227
bsVOGK-3 (THIRD GENERATION CO)
p1228
g2
(g3
(I0
tp1229
g5
tp1230
Rp1231
(I1
(I2
tp1232
g12
I00
S'\\A\x81C\x81!\x9d\xc1'
p1233
tp1234
bsS'LY'
p1235
g2
(g3
(I0
tp1236
g5
tp1237
Rp1238
(I1
(I2
tp1239
g12
I00
S'\x9f\xd3\x89AI\xae\xd2A'
p1240
tp1241
bsVCONSOLIDATED EDISON CO OF NY
p1242
g2
(g3
(I0
tp1243
g5
tp1244
Rp1245
(I1
(I2
tp1246
g12
I00
S'\xca\xe9,\xc3)q\xb5B'
p1247
tp1248
bsVHARYANA POWER GEN CO (HPGC)
p1249
g2
(g3
(I0
tp1250
g5
tp1251
Rp1252
(I1
(I2
tp1253
g12
I00
S'\x0c\xc0*C\xdd\xdc\x12B'
p1254
tp1255
bsVELECTRICHESKIYE STANTSII
p1256
g2
(g3
(I0
tp1257
g5
tp1258
Rp1259
(I1
(I2
tp1260
g12
I00
S'\x11\x98\xb1BD\x89oC'
p1261
tp1262
bsVHORIZON WIND ENERGY LLC
p1263
g2
(g3
(I0
tp1264
g5
tp1265
Rp1266
(I1
(I2
tp1267
g12
I00
S'\x112.\xc3r\xd1.B'
p1268
tp1269
bsVERTAN HYDROELECTRIC DEV CO
p1270
g2
(g3
(I0
tp1271
g5
tp1272
Rp1273
(I1
(I2
tp1274
g12
I00
S'\x0fQ\x8eBH\x93\x04C'
p1275
tp1276
bsVELECTRICITY OF VIETNAM (EVN)
p1277
g2
(g3
(I0
tp1278
g5
tp1279
Rp1280
(I1
(I2
tp1281
g12
I00
S'\x82\x0c[C\xda\xa9\xde\xc2'
p1282
tp1283
bsVGD POWER DEVELOPMENT CO LTD
p1284
g2
(g3
(I0
tp1285
g5
tp1286
Rp1287
(I1
(I2
tp1288
g12
I00
S'R5\x97B\x1b\x11\x03C'
p1289
tp1290
bsVCHINA HUANENG GROUP
p1291
g2
(g3
(I0
tp1292
g5
tp1293
Rp1294
(I1
(I2
tp1295
g12
I00
S'\xbb1\x86B\xf1\xc5\x01C'
p1296
tp1297
bsVIRKUTSKENERGO
p1298
g2
(g3
(I0
tp1299
g5
tp1300
Rp1301
(I1
(I2
tp1302
g12
I00
S'\x17a\x83C7v\x1bA'
p1303
tp1304
bsVVATTENFALL EUROPE AG
p1305
g2
(g3
(I0
tp1306
g5
tp1307
Rp1308
(I1
(I2
tp1309
g12
I00
S'\xb5D\xaa\xc2\xf6\x90d\xc2'
p1310
tp1311
bsVEGYPTIAN ELECTRICITY HOLDING
p1312
g2
(g3
(I0
tp1313
g5
tp1314
Rp1315
(I1
(I2
tp1316
g12
I00
S'gT\xa6B\xd5\xbc$\xc3'
p1317
tp1318
bsVFARSIGHTED INVESTMENT GROUP CO
p1319
g2
(g3
(I0
tp1320
g5
tp1321
Rp1322
(I1
(I2
tp1323
g12
I00
S'\x06s\x96B\xdf\xda\xeeB'
p1324
tp1325
bsVBRUCE POWER INC
p1326
g2
(g3
(I0
tp1327
g5
tp1328
Rp1329
(I1
(I2
tp1330
g12
I00
S'\xc0\xe2t\xc3u\xd0\xf3B'
p1331
tp1332
bsVCALPINE CORP
p1333
g2
(g3
(I0
tp1334
g5
tp1335
Rp1336
(I1
(I2
tp1337
g12
I00
S'\xd7\xc8>\xc3Y\x03\xacB'
p1338
tp1339
bsVMENGDA POWER GENERATION CO LTD
p1340
g2
(g3
(I0
tp1341
g5
tp1342
Rp1343
(I1
(I2
tp1344
g12
I00
S'\xa4V\x8fB\x18\xac\x12C'
p1345
tp1346
bsVELEKTROWNIA KOZIENICE SA
p1347
g2
(g3
(I0
tp1348
g5
tp1349
Rp1350
(I1
(I2
tp1351
g12
I00
S'\xae\xbe\xff\xc2b\xa5\xa9\xc2'
p1352
tp1353
bsS'LA'
p1354
g2
(g3
(I0
tp1355
g5
tp1356
Rp1357
(I1
(I2
tp1358
g12
I00
S'\xb2\xfd\xccB\xa4\xd9\x9eA'
p1359
tp1360
bsVDONBASSENERGO
p1361
g2
(g3
(I0
tp1362
g5
tp1363
Rp1364
(I1
(I2
tp1365
g12
I00
S'\xb8\xa1\tC\x18A\xd2\xc2'
p1366
tp1367
bsVPROGRESS VENTURES INC
p1368
g2
(g3
(I0
tp1369
g5
tp1370
Rp1371
(I1
(I2
tp1372
g12
I00
S'\xfcbJ\xc3f)DB'
p1373
tp1374
bsVDUKE ENERGY INDIANA INC
p1375
g2
(g3
(I0
tp1376
g5
tp1377
Rp1378
(I1
(I2
tp1379
g12
I00
S'[\xc3!\xc3\xed7\x91B'
p1380
tp1381
bsVELECTRABEL NEDERLAND
p1382
g2
(g3
(I0
tp1383
g5
tp1384
Rp1385
(I1
(I2
tp1386
g12
I00
S'\xf11GB\xa4\x1d\x9b\xc2'
p1387
tp1388
bsVWESTAR ENERGY INC
p1389
g2
(g3
(I0
tp1390
g5
tp1391
Rp1392
(I1
(I2
tp1393
g12
I00
S'\xdes&\xc3\xf4\x9b\xafB'
p1394
tp1395
bsVHUADIAN GUIZHOU CO
p1396
g2
(g3
(I0
tp1397
g5
tp1398
Rp1399
(I1
(I2
tp1400
g12
I00
S'3\x10\x85B4\x1b\x07C'
p1401
tp1402
bsVFIRSTENERGY NUCLEAR OPERATING
p1403
g2
(g3
(I0
tp1404
g5
tp1405
Rp1406
(I1
(I2
tp1407
g12
I00
S'Q\\#\xc3\xffJ\xa3B'
p1408
tp1409
bsVGLOW GROUP
p1410
g2
(g3
(I0
tp1411
g5
tp1412
Rp1413
(I1
(I2
tp1414
g12
I00
S'\xc2?|CJ/\xe7\xc2'
p1415
tp1416
bsVHUANENG SICHUAN HYDRO POWER
p1417
g2
(g3
(I0
tp1418
g5
tp1419
Rp1420
(I1
(I2
tp1421
g12
I00
S'w\x12\x83B\xccM$C'
p1422
tp1423
bsVRELIANCE ENERGY LTD
p1424
g2
(g3
(I0
tp1425
g5
tp1426
Rp1427
(I1
(I2
tp1428
g12
I00
S'\x9dM\x14C5\x01\xaaA'
p1429
tp1430
bsVKOREA WESTERN POWER (KOWEPO)
p1431
g2
(g3
(I0
tp1432
g5
tp1433
Rp1434
(I1
(I2
tp1435
g12
I00
S';I\x84C\x0fO\rC'
p1436
tp1437
bsVELEKTROPRIVREDA CRNE GORE
p1438
g2
(g3
(I0
tp1439
g5
tp1440
Rp1441
(I1
(I2
tp1442
g12
I00
S'J>X\xc2v4mC'
p1443
tp1444
bsVTGK-11 (TERRITORIAL GEN CO 11)
p1445
g2
(g3
(I0
tp1446
g5
tp1447
Rp1448
(I1
(I2
tp1449
g12
I00
S'\t\x8cQC\xadg\xfc\xc1'
p1450
tp1451
bsVENVIROPOWER LLC
p1452
g2
(g3
(I0
tp1453
g5
tp1454
Rp1455
(I1
(I2
tp1456
g12
I00
S'\xd2\xacB\xc3D\xdfRB'
p1457
tp1458
bsVCHINA NATIONAL NUCLEAR CORP
p1459
g2
(g3
(I0
tp1460
g5
tp1461
Rp1462
(I1
(I2
tp1463
g12
I00
S'\x8c\x15\x8fB\xff\xb0\xffB'
p1464
tp1465
bsVKYUSHU ELECTRIC POWER CO
p1466
g2
(g3
(I0
tp1467
g5
tp1468
Rp1469
(I1
(I2
tp1470
g12
I00
S'\x0b\xf4\x84C\x97kgB'
p1471
tp1472
bsVVERBUND-AUSTRIAN THERMAL POWER
p1473
g2
(g3
(I0
tp1474
g5
tp1475
Rp1476
(I1
(I2
tp1477
g12
I00
S'q\xa6,CD\xbd+C'
p1478
tp1479
bsVMERIDIAN ENERGY LTD
p1480
g2
(g3
(I0
tp1481
g5
tp1482
Rp1483
(I1
(I2
tp1484
g12
I00
S'\x84\xfe\x9dC]{#\xc3'
p1485
tp1486
bsVEDISON SPA
p1487
g2
(g3
(I0
tp1488
g5
tp1489
Rp1490
(I1
(I2
tp1491
g12
I00
S'|"\x9cA`\xcb\xb8\xc2'
p1492
tp1493
bsVMOSENERGO
p1494
g2
(g3
(I0
tp1495
g5
tp1496
Rp1497
(I1
(I2
tp1498
g12
I00
S'\x106\x81Ch\xc5\xcc\xbf'
p1499
tp1500
bsVAES CORP
p1501
g2
(g3
(I0
tp1502
g5
tp1503
Rp1504
(I1
(I2
tp1505
g12
I00
S'\x93\x01\x1b\xc3\x1d\x85 B'
p1506
tp1507
bsVJ-POWER VIETNAM
p1508
g2
(g3
(I0
tp1509
g5
tp1510
Rp1511
(I1
(I2
tp1512
g12
I00
S'wJeCt`\n\xc3'
p1513
tp1514
bsVDNIPROGIDROENERGO OJSC
p1515
g2
(g3
(I0
tp1516
g5
tp1517
Rp1518
(I1
(I2
tp1519
g12
I00
S'\xe6\xea\xfcBc\xe1\xc1\xc2'
p1520
tp1521
bsS'RU'
p1522
g2
(g3
(I0
tp1523
g5
tp1524
Rp1525
(I1
(I2
tp1526
g12
I00
S'4\xa3\xd2B\x96\x18vB'
p1527
tp1528
bsVRWE NPOWER PLC
p1529
g2
(g3
(I0
tp1530
g5
tp1531
Rp1532
(I1
(I2
tp1533
g12
I00
S'\xcdww>\xa6r\x1c\xc2'
p1534
tp1535
bsVSUEZ ENERGY INTERNATIONAL
p1536
g2
(g3
(I0
tp1537
g5
tp1538
Rp1539
(I1
(I2
tp1540
g12
I00
S'1f<\xc1%%\xccB'
p1541
tp1542
bsS'RS'
p1543
g2
(g3
(I0
tp1544
g5
tp1545
Rp1546
(I1
(I2
tp1547
g12
I00
S'\x00\x0c\xa8A\xeb\x100B'
p1548
tp1549
bsVKHUZESTAN REGIONAL ELECTRIC CO
p1550
g2
(g3
(I0
tp1551
g5
tp1552
Rp1553
(I1
(I2
tp1554
g12
I00
S'\xa7\xfa\x82BU&oC'
p1555
tp1556
bsVEL PASO MARKETING LP
p1557
g2
(g3
(I0
tp1558
g5
tp1559
Rp1560
(I1
(I2
tp1561
g12
I00
S'\x99\xec:\xc3?D\x9dB'
p1562
tp1563
bsVCOBISA CORP
p1564
g2
(g3
(I0
tp1565
g5
tp1566
Rp1567
(I1
(I2
tp1568
g12
I00
S'V\x8cB\xc3T\xdf\x7fB'
p1569
tp1570
bsVUS ARMY CORPS ENGINEERS
p1571
g2
(g3
(I0
tp1572
g5
tp1573
Rp1574
(I1
(I2
tp1575
g12
I00
S'\x134"\xc3=\x90\x98B'
p1576
tp1577
bsVHUBEI ELECTRIC POWER CO
p1578
g2
(g3
(I0
tp1579
g5
tp1580
Rp1581
(I1
(I2
tp1582
g12
I00
S'\x00\x82\x88BWv\x16C'
p1583
tp1584
bsVKOZLODUY NUCLEAR POWER PLANT
p1585
g2
(g3
(I0
tp1586
g5
tp1587
Rp1588
(I1
(I2
tp1589
g12
I00
S'\xf6\xa2\xeaB\x9a\x99\xf8\xc2'
p1590
tp1591
bsVWEST BENGAL POWER DEV CORP
p1592
g2
(g3
(I0
tp1593
g5
tp1594
Rp1595
(I1
(I2
tp1596
g12
I00
S'!\x83\x1bC-\xb8)\xc0'
p1597
tp1598
bsVZHEJIANG SOUTHEAST ELEC POWER
p1599
g2
(g3
(I0
tp1600
g5
tp1601
Rp1602
(I1
(I2
tp1603
g12
I00
S'\x0b\x83uB\xca\x12\x1aC'
p1604
tp1605
bsVROSTOV GENERATION CO
p1606
g2
(g3
(I0
tp1607
g5
tp1608
Rp1609
(I1
(I2
tp1610
g12
I00
S'_\x9e\x89C\x8a\xcc\xfe\xc1'
p1611
tp1612
bsVHEBEI XINGTAI POWER GENERATION
p1613
g2
(g3
(I0
tp1614
g5
tp1615
Rp1616
(I1
(I2
tp1617
g12
I00
S')\x88}B\x8ai*C'
p1618
tp1619
bsVCPS ENERGY
p1620
g2
(g3
(I0
tp1621
g5
tp1622
Rp1623
(I1
(I2
tp1624
g12
I00
S'\x1e\xec\x1f\xc3\x80q[B'
p1625
tp1626
bsVCONSUMERS ENERGY CO
p1627
g2
(g3
(I0
tp1628
g5
tp1629
Rp1630
(I1
(I2
tp1631
g12
I00
S'\x8c\x8b%\xc3\x8f\x02\x9dB'
p1632
tp1633
bsVINVENERGY LLC
p1634
g2
(g3
(I0
tp1635
g5
tp1636
Rp1637
(I1
(I2
tp1638
g12
I00
S'\xa4hB\xc3\x0c\xe7\xa6B'
p1639
tp1640
bsVARIZONA PUBLIC SERVICE CO
p1641
g2
(g3
(I0
tp1642
g5
tp1643
Rp1644
(I1
(I2
tp1645
g12
I00
S'\x03v \xc3\x8f|\x9fB'
p1646
tp1647
bsVENBW ENERGIE BADEN-WURTTEMBERG
p1648
g2
(g3
(I0
tp1649
g5
tp1650
Rp1651
(I1
(I2
tp1652
g12
I00
S'\xd2%\xd5\xc2\x04\xb0D\xc2'
p1653
tp1654
bsVSIERRA PACIFIC POWER CO
p1655
g2
(g3
(I0
tp1656
g5
tp1657
Rp1658
(I1
(I2
tp1659
g12
I00
S'6:L\xc3\xa4\xb0\x92B'
p1660
tp1661
bsVINTERNATIONAL POWER AUSTRALIA
p1662
g2
(g3
(I0
tp1663
g5
tp1664
Rp1665
(I1
(I2
tp1666
g12
I00
S'\x9d\xf9\x10@\x93Y\xdd\xc2'
p1667
tp1668
bsVTRANSALTA UTILITIES CORP
p1669
g2
(g3
(I0
tp1670
g5
tp1671
Rp1672
(I1
(I2
tp1673
g12
I00
S'1\xf8s\xc3\xe0A7B'
p1674
tp1675
bsVTENAGA JANAMANJUNG SDN BHD
p1676
g2
(g3
(I0
tp1677
g5
tp1678
Rp1679
(I1
(I2
tp1680
g12
I00
S'\xc9(\x7fC\xe7\x97\xd4B'
p1681
tp1682
bsVPUBLIC POWER CORP (DEI)
p1683
g2
(g3
(I0
tp1684
g5
tp1685
Rp1686
(I1
(I2
tp1687
g12
I00
S'<\t+C\xd0g\x0eC'
p1688
tp1689
bsVCHINA SHENHUA ENERGY CO LTD
p1690
g2
(g3
(I0
tp1691
g5
tp1692
Rp1693
(I1
(I2
tp1694
g12
I00
S'\xee\x1c\x85B6\xda\x0cC'
p1695
tp1696
bsVANDHRA PRADESH POWER GEN CORP
p1697
g2
(g3
(I0
tp1698
g5
tp1699
Rp1700
(I1
(I2
tp1701
g12
I00
S'\xe7H\x19C\xfd^#B'
p1702
tp1703
bsVSOC NAT ELEC GAZ (SONELGAZ)
p1704
g2
(g3
(I0
tp1705
g5
tp1706
Rp1707
(I1
(I2
tp1708
g12
I00
S'\xe2U \xc2\x99d \xc3'
p1709
tp1710
bsVKEYSPAN ENERGY DEVELOPMENT
p1711
g2
(g3
(I0
tp1712
g5
tp1713
Rp1714
(I1
(I2
tp1715
g12
I00
S'\xc3=,\xc3\xa0\x95"B'
p1716
tp1717
bsVMINSKENERGO
p1718
g2
(g3
(I0
tp1719
g5
tp1720
Rp1721
(I1
(I2
tp1722
g12
I00
S'g\x9a\x01C\xff\xe0uC'
p1723
tp1724
bsVDOMINION ENERGY INC
p1725
g2
(g3
(I0
tp1726
g5
tp1727
Rp1728
(I1
(I2
tp1729
g12
I00
S'\x99\xaa\x1d\xc3=syB'
p1730
tp1731
bsVCHUBU ELECTRIC POWER CO
p1732
g2
(g3
(I0
tp1733
g5
tp1734
Rp1735
(I1
(I2
tp1736
g12
I00
S'\xc7\x18\x83C\x19\xf48B'
p1737
tp1738
bsVCENT NUCLEARES ALMARAZ-TRILLO
p1739
g2
(g3
(I0
tp1740
g5
tp1741
Rp1742
(I1
(I2
tp1743
g12
I00
S'\x07\x9c\xaa\xc2\xed\xcd\xc7\xc2'
p1744
tp1745
bsVIDAHO POWER CO
p1746
g2
(g3
(I0
tp1747
g5
tp1748
Rp1749
(I1
(I2
tp1750
g12
I00
S'k\xe69\xc3b\x18!B'
p1751
tp1752
bsVCAIRO ELEC PROD CO (CEPC)
p1753
g2
(g3
(I0
tp1754
g5
tp1755
Rp1756
(I1
(I2
tp1757
g12
I00
S'\xc3\xc5nBG\x84"\xc3'
p1758
tp1759
bsVDUNAMENTI EROMU ZRT
p1760
g2
(g3
(I0
tp1761
g5
tp1762
Rp1763
(I1
(I2
tp1764
g12
I00
S'\xd2\xd5cB\xb7\xd4\x10\xc3'
p1765
tp1766
bsVISRAEL ELECTRIC CORP
p1767
g2
(g3
(I0
tp1768
g5
tp1769
Rp1770
(I1
(I2
tp1771
g12
I00
S'\xbf\x84<C\xce\x0f\xdfB'
p1772
tp1773
bsVCHINA YANGTZE POWER CORP (CYP)
p1774
g2
(g3
(I0
tp1775
g5
tp1776
Rp1777
(I1
(I2
tp1778
g12
I00
S'\x1e\xb7\x85B\x1d\xd7\xfaB'
p1779
tp1780
bsVPEABODY ENERGY CORP
p1781
g2
(g3
(I0
tp1782
g5
tp1783
Rp1784
(I1
(I2
tp1785
g12
I00
S'\xbd\xdc6\xc3\xa9\x13\xa9B'
p1786
tp1787
bsVPUBLIC ESTAB GEN & TRANS ELEC
p1788
g2
(g3
(I0
tp1789
g5
tp1790
Rp1791
(I1
(I2
tp1792
g12
I00
S'Fj\x1aC\xe9\xb1\x15C'
p1793
tp1794
bsVVERBUND-AUSTRIAN HYDRO POWER
p1795
g2
(g3
(I0
tp1796
g5
tp1797
Rp1798
(I1
(I2
tp1799
g12
I00
S'\x0ea\x1bC?K/C'
p1800
tp1801
bsVTENASKA INC
p1802
g2
(g3
(I0
tp1803
g5
tp1804
Rp1805
(I1
(I2
tp1806
g12
I00
S'\x96i0\xc3\x1a\xd0\x8cB'
p1807
tp1808
bsVDUKE ENERGY AMERICAS
p1809
g2
(g3
(I0
tp1810
g5
tp1811
Rp1812
(I1
(I2
tp1813
g12
I00
S'\xf0(A\xc3\x18\xa7\xb0B'
p1814
tp1815
bsVHIDROELECTRICA DE CAHORA BASSA
p1816
g2
(g3
(I0
tp1817
g5
tp1818
Rp1819
(I1
(I2
tp1820
g12
I00
S'\xc8\xdffBz\x83_\xc3'
p1821
tp1822
bsVVOLTA RIVER AUTHORITY
p1823
g2
(g3
(I0
tp1824
g5
tp1825
Rp1826
(I1
(I2
tp1827
g12
I00
S'\xa50\xaf\xc2\xfeH1\xc3'
p1828
tp1829
bsVCOLUMBUS SOUTHERN POWER CO
p1830
g2
(g3
(I0
tp1831
g5
tp1832
Rp1833
(I1
(I2
tp1834
g12
I00
S'14;\xc3\xca\xb0qB'
p1835
tp1836
bsVTUOKETUO NO 2 POWER CO
p1837
g2
(g3
(I0
tp1838
g5
tp1839
Rp1840
(I1
(I2
tp1841
g12
I00
S'\xa3\x97jBK\r+C'
p1842
tp1843
bsVEDIPOWER SPA
p1844
g2
(g3
(I0
tp1845
g5
tp1846
Rp1847
(I1
(I2
tp1848
g12
I00
S'\x97\xba\xc4A\x14\xe4\xa7\xc2'
p1849
tp1850
bsVCA ADMIN FOMENTO ELEC (CADAFE)
p1851
g2
(g3
(I0
tp1852
g5
tp1853
Rp1854
(I1
(I2
tp1855
g12
I00
S':[!\xc3\xa8q \xc3'
p1856
tp1857
bsVESSAR POWER LTD
p1858
g2
(g3
(I0
tp1859
g5
tp1860
Rp1861
(I1
(I2
tp1862
g12
I00
S' \xba\x16CJS\x8b?'
p1863
tp1864
bsVZHEJIANG PROVINCIAL ELEC POWER
p1865
g2
(g3
(I0
tp1866
g5
tp1867
Rp1868
(I1
(I2
tp1869
g12
I00
S'XQ\x8dBq\xdc\tC'
p1870
tp1871
bsVAMERICAN NATIONAL POWER INC
p1872
g2
(g3
(I0
tp1873
g5
tp1874
Rp1875
(I1
(I2
tp1876
g12
I00
S'\xec\xf1\x1d\xc3\x07\xca\x92B'
p1877
tp1878
bsVHEBEI ELECTRIC POWER CORP
p1879
g2
(g3
(I0
tp1880
g5
tp1881
Rp1882
(I1
(I2
tp1883
g12
I00
S'\xa2\x07mB\xff\x00"C'
p1884
tp1885
bsVKERNKRAFTWERK GUNDREMMINGEN
p1886
g2
(g3
(I0
tp1887
g5
tp1888
Rp1889
(I1
(I2
tp1890
g12
I00
S'mW\xed\xc2\t"B\xc2'
p1891
tp1892
bsVCLP POWER CHINA LTD
p1893
g2
(g3
(I0
tp1894
g5
tp1895
Rp1896
(I1
(I2
tp1897
g12
I00
S'\xd0\x1ezBI=\x15C'
p1898
tp1899
bsVMEIYA POWER CO
p1900
g2
(g3
(I0
tp1901
g5
tp1902
Rp1903
(I1
(I2
tp1904
g12
I00
S'\xf1\x9a\xcaBU\x8d\x0fC'
p1905
tp1906
bsVPACIFIC GAS AND ELECTRIC CO
p1907
g2
(g3
(I0
tp1908
g5
tp1909
Rp1910
(I1
(I2
tp1911
g12
I00
S'\xc4\x1a(\xc3&\x15\xa2B'
p1912
tp1913
bsVOG&E ELECTRIC SERVICES INC
p1914
g2
(g3
(I0
tp1915
g5
tp1916
Rp1917
(I1
(I2
tp1918
g12
I00
S'5\x0e\x1d\xc3=\xef\x8bB'
p1919
tp1920
bsVBC HYDRO AND POWER AUTHORITY
p1921
g2
(g3
(I0
tp1922
g5
tp1923
Rp1924
(I1
(I2
tp1925
g12
I00
S'}\xa21\xc35\x07\xe9B'
p1926
tp1927
bsVCA ENER MINAS GERAIS (CEMIG)
p1928
g2
(g3
(I0
tp1929
g5
tp1930
Rp1931
(I1
(I2
tp1932
g12
I00
S'R(9\xc2\xfb\x02\xbc?'
p1933
tp1934
bsVBKW FMB ENERGIE AG
p1935
g2
(g3
(I0
tp1936
g5
tp1937
Rp1938
(I1
(I2
tp1939
g12
I00
S'\x00\xe2\xbe@\xb1B#\xc3'
p1940
tp1941
bsVNEW YORK POWER AUTHORITY
p1942
g2
(g3
(I0
tp1943
g5
tp1944
Rp1945
(I1
(I2
tp1946
g12
I00
S'\xce\xa65\xc3\t\x96WB'
p1947
tp1948
bsVDALENERGO
p1949
g2
(g3
(I0
tp1950
g5
tp1951
Rp1952
(I1
(I2
tp1953
g12
I00
S'e\xbd\x90C\xee+/\xc1'
p1954
tp1955
bsS'EE'
p1956
g2
(g3
(I0
tp1957
g5
tp1958
Rp1959
(I1
(I2
tp1960
g12
I00
S'\xde\x1b\xc8A\x8fajB'
p1961
tp1962
bsS'EG'
p1963
g2
(g3
(I0
tp1964
g5
tp1965
Rp1966
(I1
(I2
tp1967
g12
I00
S'\x84k\xf6A~\x90\xd6A'
p1968
tp1969
bsVHENAN ELECTRIC POWER CO
p1970
g2
(g3
(I0
tp1971
g5
tp1972
Rp1973
(I1
(I2
tp1974
g12
I00
S'>;\x91B\xe6\xff\rC'
p1975
tp1976
bsS'EC'
p1977
g2
(g3
(I0
tp1978
g5
tp1979
Rp1980
(I1
(I2
tp1981
g12
I00
S'\xe7]\x9c\xc2\nf\xea\xbf'
p1982
tp1983
bsVCIC ENERGY CORP
p1984
g2
(g3
(I0
tp1985
g5
tp1986
Rp1987
(I1
(I2
tp1988
g12
I00
S'\xdd7\\\xc2\xc8e\xf5B'
p1989
tp1990
bsVTRANSALTA ENERGY CORP
p1991
g2
(g3
(I0
tp1992
g5
tp1993
Rp1994
(I1
(I2
tp1995
g12
I00
S'\xaa\xd7\n\xc3\x1f$\x00B'
p1996
tp1997
bsVNATIONAL ENERGY & GAS TRANSM
p1998
g2
(g3
(I0
tp1999
g5
tp2000
Rp2001
(I1
(I2
tp2002
g12
I00
S'\xfb,,\xc3\xd0[\xa5B'
p2003
tp2004
bsVHC ENERGIA
p2005
g2
(g3
(I0
tp2006
g5
tp2007
Rp2008
(I1
(I2
tp2009
g12
I00
S'}g\x92\xc2\xcd\xa5\xc3\xc2'
p2010
tp2011
bsVSC ELECTROCENTRALE BUCURESTI
p2012
g2
(g3
(I0
tp2013
g5
tp2014
Rp2015
(I1
(I2
tp2016
g12
I00
S'Y\x0f\x02C\xfb\xf5_C'
p2017
tp2018
bsVBRITISH NUCLEAR GROUP (BNG)
p2019
g2
(g3
(I0
tp2020
g5
tp2021
Rp2022
(I1
(I2
tp2023
g12
I00
S'\x82\xd1\xc1\xc0\xc3GX\xc2'
p2024
tp2025
bsVCLECO POWER LLC
p2026
g2
(g3
(I0
tp2027
g5
tp2028
Rp2029
(I1
(I2
tp2030
g12
I00
S'R\xf8M\xc3\x03\x0c\x84B'
p2031
tp2032
bsVNTPC HYDRO LTD
p2033
g2
(g3
(I0
tp2034
g5
tp2035
Rp2036
(I1
(I2
tp2037
g12
I00
S'\x81O!C\xc0{\x8bA'
p2038
tp2039
bsS'ES'
p2040
g2
(g3
(I0
tp2041
g5
tp2042
Rp2043
(I1
(I2
tp2044
g12
I00
S'8\xf3o\xc0\xcc\xda!B'
p2045
tp2046
bsVCHINA POWER INVESTMENT CORP
p2047
g2
(g3
(I0
tp2048
g5
tp2049
Rp2050
(I1
(I2
tp2051
g12
I00
S'\xaf\xadGB\xc7H\x01C'
p2052
tp2053
bsVSHANXI DATANG SHENTOU POWER
p2054
g2
(g3
(I0
tp2055
g5
tp2056
Rp2057
(I1
(I2
tp2058
g12
I00
S'K\xca\xffA\x96\xe3\x1bC'
p2059
tp2060
bsVPAKISTAN ATOMIC ENERGY COMM
p2061
g2
(g3
(I0
tp2062
g5
tp2063
Rp2064
(I1
(I2
tp2065
g12
I00
S'\xef2\xdcB6M\x10\xc2'
p2066
tp2067
bsVHIDROAYSEN
p2068
g2
(g3
(I0
tp2069
g5
tp2070
Rp2071
(I1
(I2
tp2072
g12
I00
S'L\xdc-\xc3\x18\xf1\xf5\xc2'
p2073
tp2074
bsVOGK-1 (FIRST GENERATION CO)
p2075
g2
(g3
(I0
tp2076
g5
tp2077
Rp2078
(I1
(I2
tp2079
g12
I00
S'\xea\x16\x7fC\xd2\xf1>\xc1'
p2080
tp2081
bsVPOWERSERAYA LTD
p2082
g2
(g3
(I0
tp2083
g5
tp2084
Rp2085
(I1
(I2
tp2086
g12
I00
S'-k\xeaB\x867\r\xc3'
p2087
tp2088
bsVEDP ENERGIAS DO BRASIL SA
p2089
g2
(g3
(I0
tp2090
g5
tp2091
Rp2092
(I1
(I2
tp2093
g12
I00
S'zz\x80\xc2,\xe4@A'
p2094
tp2095
bsVGENERAL ELECTRICITY CO LIBYA
p2096
g2
(g3
(I0
tp2097
g5
tp2098
Rp2099
(I1
(I2
tp2100
g12
I00
S'\x00>\xa7AF\x90\x10\xc3'
p2101
tp2102
bsVAMERENENERGY GENERATING CO
p2103
g2
(g3
(I0
tp2104
g5
tp2105
Rp2106
(I1
(I2
tp2107
g12
I00
S'\xdbw9\xc3w[cB'
p2108
tp2109
bsVRATCHABURI ELEC GEN HOLDING
p2110
g2
(g3
(I0
tp2111
g5
tp2112
Rp2113
(I1
(I2
tp2114
g12
I00
S'\x7f\xb0nC\xd1\xc4\xda\xc2'
p2115
tp2116
bsVBIHAR STATE ELECTRICITY BOARD
p2117
g2
(g3
(I0
tp2118
g5
tp2119
Rp2120
(I1
(I2
tp2121
g12
I00
S']\xef!C\xf4\xbe\xd3A'
p2122
tp2123
bsVEAST DELTA ELECTRICITY PROD CO
p2124
g2
(g3
(I0
tp2125
g5
tp2126
Rp2127
(I1
(I2
tp2128
g12
I00
S'}\xfc\x90B\x1c\xa6\x1b\xc3'
p2129
tp2130
bsVSOUTHWESTERN PUB SERV CO
p2131
g2
(g3
(I0
tp2132
g5
tp2133
Rp2134
(I1
(I2
tp2135
g12
I00
S'\xb6\xfe(\xc3\xba\x02\xaaB'
p2136
tp2137
bsVSHANDONG LUNENG GROUP
p2138
g2
(g3
(I0
tp2139
g5
tp2140
Rp2141
(I1
(I2
tp2142
g12
I00
S'\n\x10XB\xf4\xfa*C'
p2143
tp2144
bsVSNOWY HYDRO LTD
p2145
g2
(g3
(I0
tp2146
g5
tp2147
Rp2148
(I1
(I2
tp2149
g12
I00
S'~\x8f%\xc0Z\xa9\xc7\xc2'
p2150
tp2151
bsVENRON NORTH AMERICA
p2152
g2
(g3
(I0
tp2153
g5
tp2154
Rp2155
(I1
(I2
tp2156
g12
I00
S'\x99\xbc=\xc3\xee\x085B'
p2157
tp2158
bsVRELIANT ENERGY INC
p2159
g2
(g3
(I0
tp2160
g5
tp2161
Rp2162
(I1
(I2
tp2163
g12
I00
S'\xc0\xc8 \xc3W\x81\x89B'
p2164
tp2165
bsVTAMIL NADU ELECTRICITY BOARD
p2166
g2
(g3
(I0
tp2167
g5
tp2168
Rp2169
(I1
(I2
tp2170
g12
I00
S'1r\x1aCd\x04\xc7@'
p2171
tp2172
bsVDIAMOND GENERATING CORP (US)
p2173
g2
(g3
(I0
tp2174
g5
tp2175
Rp2176
(I1
(I2
tp2177
g12
I00
S'xmF\xc3\x15>]B'
p2178
tp2179
bsVCOMPLETE ENERGY HOLDINGS LLC
p2180
g2
(g3
(I0
tp2181
g5
tp2182
Rp2183
(I1
(I2
tp2184
g12
I00
S'\t\x87A\xc3\x94\xdc/B'
p2185
tp2186
bsVLANDSVIRKJUN
p2187
g2
(g3
(I0
tp2188
g5
tp2189
Rp2190
(I1
(I2
tp2191
g12
I00
S'\xb0F\xc7\xc2\x1b\xa8{C'
p2192
tp2193
bsVAES GENER SA
p2194
g2
(g3
(I0
tp2195
g5
tp2196
Rp2197
(I1
(I2
tp2198
g12
I00
S'n`"\xc3_\xc1\xf4\xc2'
p2199
tp2200
bsVKARACHI ELECTRIC SUPPLY CORP
p2201
g2
(g3
(I0
tp2202
g5
tp2203
Rp2204
(I1
(I2
tp2205
g12
I00
S'}\x01\xebB0\x05\x04B'
p2206
tp2207
bsVROSENERGOATOM
p2208
g2
(g3
(I0
tp2209
g5
tp2210
Rp2211
(I1
(I2
tp2212
g12
I00
S'\xd8\xaa}C\xe1|\xdf@'
p2213
tp2214
bsVTAWEELAH ASIA POWER CO
p2215
g2
(g3
(I0
tp2216
g5
tp2217
Rp2218
(I1
(I2
tp2219
g12
I00
S'b\x99\xe7B\xaau+\xc3'
p2220
tp2221
bsVCVG ELECTRIFICACION DEL CARONI
p2222
g2
(g3
(I0
tp2223
g5
tp2224
Rp2225
(I1
(I2
tp2226
g12
I00
S'K\xbb)\xc3\x9d\x86\x0b\xc3'
p2227
tp2228
bsVNUCLEAR POWER QINSHAN JV CO
p2229
g2
(g3
(I0
tp2230
g5
tp2231
Rp2232
(I1
(I2
tp2233
g12
I00
S'\x95lvB-b&C'
p2234
tp2235
bsVDETROIT EDISON CO
p2236
g2
(g3
(I0
tp2237
g5
tp2238
Rp2239
(I1
(I2
tp2240
g12
I00
S'c\xf4 \xc3\x80W\x81B'
p2241
tp2242
bsVTAMPA ELECTRIC CO
p2243
g2
(g3
(I0
tp2244
g5
tp2245
Rp2246
(I1
(I2
tp2247
g12
I00
S'\xbd ,\xc3!\x08\x9eB'
p2248
tp2249
bsVKRASNOYARSK HPS
p2250
g2
(g3
(I0
tp2251
g5
tp2252
Rp2253
(I1
(I2
tp2254
g12
I00
S'**\x89C\x86\x16\x0e@'
p2255
tp2256
bsVINDIANAPOLIS POWER & LIGHT CO
p2257
g2
(g3
(I0
tp2258
g5
tp2259
Rp2260
(I1
(I2
tp2261
g12
I00
S'\xad\xaf7\xc3\xf0"\xb7B'
p2262
tp2263
bsVGANSU ELECTRIC POWER CO
p2264
g2
(g3
(I0
tp2265
g5
tp2266
Rp2267
(I1
(I2
tp2268
g12
I00
S'\xd2\xe0PB\xdeg&C'
p2269
tp2270
bsVENTERGY ASSET MANAGEMENT
p2271
g2
(g3
(I0
tp2272
g5
tp2273
Rp2274
(I1
(I2
tp2275
g12
I00
S'\xf0\xef/\xc3!\xfa\xadB'
p2276
tp2277
bsVAZERENERJI
p2278
g2
(g3
(I0
tp2279
g5
tp2280
Rp2281
(I1
(I2
tp2282
g12
I00
S'\x91\x0e3C\x8d\x14\xb6\xc2'
p2283
tp2284
bsVTOKYO ELECTRIC POWER CO
p2285
g2
(g3
(I0
tp2286
g5
tp2287
Rp2288
(I1
(I2
tp2289
g12
I00
S'\x12{\x80C\x90\xd5lB'
p2290
tp2291
bsVNRG TEXAS LLC
p2292
g2
(g3
(I0
tp2293
g5
tp2294
Rp2295
(I1
(I2
tp2296
g12
I00
S'\x9f "\xc3\xc1RuB'
p2297
tp2298
bsVLATVENERGO
p2299
g2
(g3
(I0
tp2300
g5
tp2301
Rp2302
(I1
(I2
tp2303
g12
I00
S'<`\tC&\xbcpC'
p2304
tp2305
bsVRAJASTHAN RV UTPADAN NIGAM
p2306
g2
(g3
(I0
tp2307
g5
tp2308
Rp2309
(I1
(I2
tp2310
g12
I00
S'\xbe\x83\x1eC;<2B'
p2311
tp2312
bsVSOUTHEAST ASIA ENERGY CO LTD
p2313
g2
(g3
(I0
tp2314
g5
tp2315
Rp2316
(I1
(I2
tp2317
g12
I00
S'F\xf8"C\x94\xb6p\xc2'
p2318
tp2319
bsVGREAT RIVER ENERGY
p2320
g2
(g3
(I0
tp2321
g5
tp2322
Rp2323
(I1
(I2
tp2324
g12
I00
S'\xab\xe7B\xc3d\x97\x9eB'
p2325
tp2326
bsVMISSISSIPPI POWER CO
p2327
g2
(g3
(I0
tp2328
g5
tp2329
Rp2330
(I1
(I2
tp2331
g12
I00
S'\x97\x1c3\xc3}:\xa9B'
p2332
tp2333
bsVJSW ENERGY LTD
p2334
g2
(g3
(I0
tp2335
g5
tp2336
Rp2337
(I1
(I2
tp2338
g12
I00
S"q\xe61C'\xd34B"
p2339
tp2340
bsVIRAN WATER & POWER RES DEV CO
p2341
g2
(g3
(I0
tp2342
g5
tp2343
Rp2344
(I1
(I2
tp2345
g12
I00
S'\xe2\x1e\xc2B\xebx]C'
p2346
tp2347
bsVENTERGY GULF STATES INC
p2348
g2
(g3
(I0
tp2349
g5
tp2350
Rp2351
(I1
(I2
tp2352
g12
I00
S'S\n7\xc3In{B'
p2353
tp2354
bsVLS POWER GROUP
p2355
g2
(g3
(I0
tp2356
g5
tp2357
Rp2358
(I1
(I2
tp2359
g12
I00
S'\x17{\x1d\xc3\xdcn\x84B'
p2360
tp2361
bsVWATER & POWER DEVELOP AUTH
p2362
g2
(g3
(I0
tp2363
g5
tp2364
Rp2365
(I1
(I2
tp2366
g12
I00
S'(\xce\xf2B\x7f7fB'
p2367
tp2368
bsVMINISTRY WATER RESOURCES (NP)
p2369
g2
(g3
(I0
tp2370
g5
tp2371
Rp2372
(I1
(I2
tp2373
g12
I00
S'\x015pC\xcb\xb7\xcdB'
p2374
tp2375
bsVPANDA ENERGY INTERNATIONAL INC
p2376
g2
(g3
(I0
tp2377
g5
tp2378
Rp2379
(I1
(I2
tp2380
g12
I00
S'\x82\x16\xa4\xc2z\x94\xc4B'
p2381
tp2382
bsVDRAX POWER LTD
p2383
g2
(g3
(I0
tp2384
g5
tp2385
Rp2386
(I1
(I2
tp2387
g12
I00
S'\xcf\x06\x93@\xe5\xd9r\xc2'
p2388
tp2389
bsVKINDER MORGAN INC
p2390
g2
(g3
(I0
tp2391
g5
tp2392
Rp2393
(I1
(I2
tp2394
g12
I00
S'\x9e\x9c7\xc3\xea\xc0\x15B'
p2395
tp2396
bsVSHENERGY COMPANY LTD
p2397
g2
(g3
(I0
tp2398
g5
tp2399
Rp2400
(I1
(I2
tp2401
g12
I00
S'\xf9\x19MB^\xbd\xf6B'
p2402
tp2403
bsVGUIZHOU ELECTRIC POWER CO
p2404
g2
(g3
(I0
tp2405
g5
tp2406
Rp2407
(I1
(I2
tp2408
g12
I00
S'\x8e\xf8GB\xdc\xfd\x14C'
p2409
tp2410
bsVTRACTEBEL ENERGIA SA
p2411
g2
(g3
(I0
tp2412
g5
tp2413
Rp2414
(I1
(I2
tp2415
g12
I00
S'\x155_\xc2\x16\xa7N\xbf'
p2416
tp2417
bsVDELTA ELECTRICITY
p2418
g2
(g3
(I0
tp2419
g5
tp2420
Rp2421
(I1
(I2
tp2422
g12
I00
S'\x84\xa9$\xbf\x0e\xa6\xb5\xc2'
p2423
tp2424
bsVIBERDROLA MEXICO
p2425
g2
(g3
(I0
tp2426
g5
tp2427
Rp2428
(I1
(I2
tp2429
g12
I00
S"_\x954\xc3':'C"
p2430
tp2431
bsS'KP'
p2432
g2
(g3
(I0
tp2433
g5
tp2434
Rp2435
(I1
(I2
tp2436
g12
I00
S'+\x05\xffB\x02\\!B'
p2437
tp2438
bsVENTIDAD BINACIONAL YACYRETA
p2439
g2
(g3
(I0
tp2440
g5
tp2441
Rp2442
(I1
(I2
tp2443
g12
I00
S'V\xed\t\xc3\xd7\xbaT\xc3'
p2444
tp2445
bsVLIAONING HONGYANHE NUC POW CO
p2446
g2
(g3
(I0
tp2447
g5
tp2448
Rp2449
(I1
(I2
tp2450
g12
I00
S'\x9d\x05\x0fB\x11\xe4\x12C'
p2451
tp2452
bsS'KZ'
p2453
g2
(g3
(I0
tp2454
g5
tp2455
Rp2456
(I1
(I2
tp2457
g12
I00
S'\xed\xd8\x85B\x0b\x14@B'
p2458
tp2459
bsVZAKHIDENERGO
p2460
g2
(g3
(I0
tp2461
g5
tp2462
Rp2463
(I1
(I2
tp2464
g12
I00
S'\xba\x83\x14C\xa3\x8d\xbc\xc2'
p2465
tp2466
bsVDOMINION VIRGINIA POWER
p2467
g2
(g3
(I0
tp2468
g5
tp2469
Rp2470
(I1
(I2
tp2471
g12
I00
S'j\xb9$\xc3m\xc8\x8cB'
p2472
tp2473
bsVVATTENFALL AB
p2474
g2
(g3
(I0
tp2475
g5
tp2476
Rp2477
(I1
(I2
tp2478
g12
I00
S'\x1dF\xa5\xc0W\x1bTC'
p2479
tp2480
bsS'DO'
p2481
g2
(g3
(I0
tp2482
g5
tp2483
Rp2484
(I1
(I2
tp2485
g12
I00
S'GS\x8c\xc2\xb3\xe2\x95A'
p2486
tp2487
bsS'DK'
p2488
g2
(g3
(I0
tp2489
g5
tp2490
Rp2491
(I1
(I2
tp2492
g12
I00
S'P\x07\x18AA\x0eaB'
p2493
tp2494
bsS'DE'
p2495
g2
(g3
(I0
tp2496
g5
tp2497
Rp2498
(I1
(I2
tp2499
g12
I00
S"s9'A\xab\xa9LB"
p2500
tp2501
bsS'DZ'
p2502
g2
(g3
(I0
tp2503
g5
tp2504
Rp2505
(I1
(I2
tp2506
g12
I00
S'\xa0n\xd4?fE\xe0A'
p2507
tp2508
bsVVATTENFALL EUROPE NUCLEAR
p2509
g2
(g3
(I0
tp2510
g5
tp2511
Rp2512
(I1
(I2
tp2513
g12
I00
S'\xd9N\xed\xc2\xb5\ra\xc2'
p2514
tp2515
bsVOGK-5 (FIFTH GENERATION CO)
p2516
g2
(g3
(I0
tp2517
g5
tp2518
Rp2519
(I1
(I2
tp2520
g12
I00
S'\xb4\xa6\x84C\xd2L\x81\xc1'
p2521
tp2522
bsVTURKMENENERGO
p2523
g2
(g3
(I0
tp2524
g5
tp2525
Rp2526
(I1
(I2
tp2527
g12
I00
S'\xfb_JB\x94;"\xc3'
p2528
tp2529
bsVENERGY NORTHWEST INC
p2530
g2
(g3
(I0
tp2531
g5
tp2532
Rp2533
(I1
(I2
tp2534
g12
I00
S'J\xec=\xc3\xabD&B'
p2535
tp2536
bsVHORMOZGAN REGIONAL ELEC POWER
p2537
g2
(g3
(I0
tp2538
g5
tp2539
Rp2540
(I1
(I2
tp2541
g12
I00
S'\xee:\xc8B\xa9kqC'
p2542
tp2543
bsVMIRANT CORP
p2544
g2
(g3
(I0
tp2545
g5
tp2546
Rp2547
(I1
(I2
tp2548
g12
I00
S'2\xf8%\xc3E\xb2\x94B'
p2549
tp2550
bsVCESP
p2551
g2
(g3
(I0
tp2552
g5
tp2553
Rp2554
(I1
(I2
tp2555
g12
I00
S'Fn\x83\xc2\xd2-V\xc1'
p2556
tp2557
bsVPNM
p2558
g2
(g3
(I0
tp2559
g5
tp2560
Rp2561
(I1
(I2
tp2562
g12
I00
S'\xa5\xebH\xc3\xcd\xc0RB'
p2563
tp2564
bsVZIMBABWE ELEC SUPPLY AUTH
p2565
g2
(g3
(I0
tp2566
g5
tp2567
Rp2568
(I1
(I2
tp2569
g12
I00
S'\xa9\xd0\xa1Bj6V\xc3'
p2570
tp2571
bsVCENTRAL COSTANERA SA
p2572
g2
(g3
(I0
tp2573
g5
tp2574
Rp2575
(I1
(I2
tp2576
g12
I00
S'\x14\xe7\xf0\xc2(\\\\\xc3'
p2577
tp2578
bsVONTARIO POWER GENERATION INC
p2579
g2
(g3
(I0
tp2580
g5
tp2581
Rp2582
(I1
(I2
tp2583
g12
I00
S'\xdd\tu\xc3\xa6\xff\xc4B'
p2584
tp2585
bsVTENASKA POWER FUND LP
p2586
g2
(g3
(I0
tp2587
g5
tp2588
Rp2589
(I1
(I2
tp2590
g12
I00
S'\x13$-\xc3\x93\x00=B'
p2591
tp2592
bsVBROOKFIELD POWER CORP
p2593
g2
(g3
(I0
tp2594
g5
tp2595
Rp2596
(I1
(I2
tp2597
g12
I00
S'\xb5\xd0H\xc3\x1a\x18\xa9B'
p2598
tp2599
bsVDPL ENERGY LLC
p2600
g2
(g3
(I0
tp2601
g5
tp2602
Rp2603
(I1
(I2
tp2604
g12
I00
S'v\xceH\xc3\r\xce7B'
p2605
tp2606
bsVENERG ELEC VENEZUELA (ENELVEN)
p2607
g2
(g3
(I0
tp2608
g5
tp2609
Rp2610
(I1
(I2
tp2611
g12
I00
S'(g\x06\xc3\x89\xcc/\xc3'
p2612
tp2613
bsVMESAIEED POWER CO LTD (MCPL)
p2614
g2
(g3
(I0
tp2615
g5
tp2616
Rp2617
(I1
(I2
tp2618
g12
I00
S'\x99!aC\xf8\xc6\xc1\xc1'
p2619
tp2620
bsVNORTH CHINA GRID CO LTD
p2621
g2
(g3
(I0
tp2622
g5
tp2623
Rp2624
(I1
(I2
tp2625
g12
I00
S'\x0e@bB4\xf7\xf6B'
p2626
tp2627
bsVUS POWER GENERATING CO LLC
p2628
g2
(g3
(I0
tp2629
g5
tp2630
Rp2631
(I1
(I2
tp2632
g12
I00
S'\x96\xcd9\xc3\x0f\x1c0B'
p2633
tp2634
bsVNEYVELI LIGNITE CORP LTD
p2635
g2
(g3
(I0
tp2636
g5
tp2637
Rp2638
(I1
(I2
tp2639
g12
I00
S'J\x9a\x1cC\xa4\x0e\x0cB'
p2640
tp2641
bsVMAILIAO POWER CO
p2642
g2
(g3
(I0
tp2643
g5
tp2644
Rp2645
(I1
(I2
tp2646
g12
I00
S'\xaa\x94\x8fCc@\x9a\xc2'
p2647
tp2648
bsVKHUZESTAN WATER & POWER AUTH
p2649
g2
(g3
(I0
tp2650
g5
tp2651
Rp2652
(I1
(I2
tp2653
g12
I00
S'\xbd\x110B\xda\xfcqC'
p2654
tp2655
bsVINNER MONGOLIA ELEC POWER CORP
p2656
g2
(g3
(I0
tp2657
g5
tp2658
Rp2659
(I1
(I2
tp2660
g12
I00
S'\xe9\xa0 BwK\x15C'
p2661
tp2662
bsVITAIPU BINACIONAL
p2663
g2
(g3
(I0
tp2664
g5
tp2665
Rp2666
(I1
(I2
tp2667
g12
I00
S'z5v\xc2\xfa=\x9d\xc1'
p2668
tp2669
bsVNTPC LTD
p2670
g2
(g3
(I0
tp2671
g5
tp2672
Rp2673
(I1
(I2
tp2674
g12
I00
S'N\xaa\x10C%\xa5\x7fA'
p2675
tp2676
bsVEXELON POWER
p2677
g2
(g3
(I0
tp2678
g5
tp2679
Rp2680
(I1
(I2
tp2681
g12
I00
S'u\xee"\xc3\x1b\xa9fB'
p2682
tp2683
bsVSEMPRA GENERATION
p2684
g2
(g3
(I0
tp2685
g5
tp2686
Rp2687
(I1
(I2
tp2688
g12
I00
S'\x8a\xad \xc3s=\xaaB'
p2689
tp2690
bsVTOHOKU ELECTRIC POWER CO
p2691
g2
(g3
(I0
tp2692
g5
tp2693
Rp2694
(I1
(I2
tp2695
g12
I00
S'\xde\x9e\x84C\xfd3\x88B'
p2696
tp2697
bsVOFFICE NATIONAL DE L'ELEC
p2698
g2
(g3
(I0
tp2699
g5
tp2700
Rp2701
(I1
(I2
tp2702
g12
I00
S'J\x8c\x89\xc2\x1f\x1b\x1c\xc3'
p2703
tp2704
bsS'QA'
p2705
g2
(g3
(I0
tp2706
g5
tp2707
Rp2708
(I1
(I2
tp2709
g12
I00
S'L\xbcLB\xaf\xd6\xcaA'
p2710
tp2711
bsVCITIC PACIFIC LTD
p2712
g2
(g3
(I0
tp2713
g5
tp2714
Rp2715
(I1
(I2
tp2716
g12
I00
S'\xa3\xf51B\x11\xf8\x12C'
p2717
tp2718
bsVGUANGDONG HONGHAIWAN GEN CO
p2719
g2
(g3
(I0
tp2720
g5
tp2721
Rp2722
(I1
(I2
tp2723
g12
I00
S'j\x7f\x11B\xaav\x1cC'
p2724
tp2725
bsVNEBRASKA PUBLIC POWER DIST
p2726
g2
(g3
(I0
tp2727
g5
tp2728
Rp2729
(I1
(I2
tp2730
g12
I00
S'!\x07H\xc3x\xfd\x93B'
p2731
tp2732
bsVYUNNAN ELECTRIC POWER GROUP CO
p2733
g2
(g3
(I0
tp2734
g5
tp2735
Rp2736
(I1
(I2
tp2737
g12
I00
S'(\xbbrB\xa5b\xf8B'
p2738
tp2739
bsVWATER AND ELECTRIC CO (WEC)
p2740
g2
(g3
(I0
tp2741
g5
tp2742
Rp2743
(I1
(I2
tp2744
g12
I00
S'4\x04\x1e\xc2I{\x10C'
p2745
tp2746
bsVE.ON KERNKRAFT GMBH
p2747
g2
(g3
(I0
tp2748
g5
tp2749
Rp2750
(I1
(I2
tp2751
g12
I00
S"s\x9d\xdf\xc2&6'\xc2"
p2752
tp2753
bsVEESTI ENERGIA SA
p2754
g2
(g3
(I0
tp2755
g5
tp2756
Rp2757
(I1
(I2
tp2758
g12
I00
S'\xe77\xde\xc1]\x83\x82C'
p2759
tp2760
bsVSENOKO POWER LTD
p2761
g2
(g3
(I0
tp2762
g5
tp2763
Rp2764
(I1
(I2
tp2765
g12
I00
S'_\x82\xc7BE\x0c\x14\xc3'
p2766
tp2767
bsVKENTUCKY UTILITIES CO
p2768
g2
(g3
(I0
tp2769
g5
tp2770
Rp2771
(I1
(I2
tp2772
g12
I00
S'\xf2a2\xc3I\xb0*B'
p2773
tp2774
bsVENTERGY OPERATIONS INC
p2775
g2
(g3
(I0
tp2776
g5
tp2777
Rp2778
(I1
(I2
tp2779
g12
I00
S'&\xcc)\xc3\x99\x89\x98B'
p2780
tp2781
bsVIBERDROLA ENERGIA ALTAMIRA SA
p2782
g2
(g3
(I0
tp2783
g5
tp2784
Rp2785
(I1
(I2
tp2786
g12
I00
S'\x9f\xcf&\xc3\n\xe4/C'
p2787
tp2788
bsVPPM ENERGY INC
p2789
g2
(g3
(I0
tp2790
g5
tp2791
Rp2792
(I1
(I2
tp2793
g12
I00
S'\\t3\xc3V\xb1\xb1B'
p2794
tp2795
bsVENDESA ITALIA
p2796
g2
(g3
(I0
tp2797
g5
tp2798
Rp2799
(I1
(I2
tp2800
g12
I00
S'\xfe\xd0\x08B\xb7&\xaf\xc2'
p2801
tp2802
bsS'JP'
p2803
g2
(g3
(I0
tp2804
g5
tp2805
Rp2806
(I1
(I2
tp2807
g12
I00
S'\xc0@\nC\xbd\xd1\x10B'
p2808
tp2809
bsVMMC CORP BHD
p2810
g2
(g3
(I0
tp2811
g5
tp2812
Rp2813
(I1
(I2
tp2814
g12
I00
S'\x15r\xf8B\x08:\xfdB'
p2815
tp2816
bsVSUEZ ENERGY GENERATION NA
p2817
g2
(g3
(I0
tp2818
g5
tp2819
Rp2820
(I1
(I2
tp2821
g12
I00
S'|/D\xc3%$\xadB'
p2822
tp2823
bsVHUANENG POWER INTERNATIONAL
p2824
g2
(g3
(I0
tp2825
g5
tp2826
Rp2827
(I1
(I2
tp2828
g12
I00
S'DUeB\xdbT\x01C'
p2829
tp2830
bsVKEPCO PHILLIPINES CORP
p2831
g2
(g3
(I0
tp2832
g5
tp2833
Rp2834
(I1
(I2
tp2835
g12
I00
S'\x9aW\xb2B(\x0f\xa0B'
p2836
tp2837
bsVBASIN ELECTRIC POWER COOP
p2838
g2
(g3
(I0
tp2839
g5
tp2840
Rp2841
(I1
(I2
tp2842
g12
I00
S'\x9eD@\xc3{\x03qB'
p2843
tp2844
bsVCHINA GUODIAN GROUP CORP
p2845
g2
(g3
(I0
tp2846
g5
tp2847
Rp2848
(I1
(I2
tp2849
g12
I00
S'\x11\xca4B*/\x03C'
p2850
tp2851
bsVVECTREN ENERGY INDIANA SOUTH
p2852
g2
(g3
(I0
tp2853
g5
tp2854
Rp2855
(I1
(I2
tp2856
g12
I00
S'\xf1%E\xc35\xec5B'
p2857
tp2858
bsVPPL MONTANA LLC
p2859
g2
(g3
(I0
tp2860
g5
tp2861
Rp2862
(I1
(I2
tp2863
g12
I00
S'`.D\xc3AX\x8fB'
p2864
tp2865
bsVETHIOPIAN ELECTRIC POWER CORP
p2866
g2
(g3
(I0
tp2867
g5
tp2868
Rp2869
(I1
(I2
tp2870
g12
I00
S'b\x86\\C\xf0\xa0FB'
p2871
tp2872
bsVOKG AKTIEBOLAG
p2873
g2
(g3
(I0
tp2874
g5
tp2875
Rp2876
(I1
(I2
tp2877
g12
I00
S'\x87t\xc6A\x88\x95\x84C'
p2878
tp2879
bsVGRANT COUNTY PUD 2
p2880
g2
(g3
(I0
tp2881
g5
tp2882
Rp2883
(I1
(I2
tp2884
g12
I00
S'\xd3\xe5M\xc3\xf1*mB'
p2885
tp2886
bsVFUJAIRAH ASIA POWER CO
p2887
g2
(g3
(I0
tp2888
g5
tp2889
Rp2890
(I1
(I2
tp2891
g12
I00
S'\xcd\xdd\x07C\xe0(\x1c\xc3'
p2892
tp2893
bsVBEIJING ENERGY INVEST HOLDING
p2894
g2
(g3
(I0
tp2895
g5
tp2896
Rp2897
(I1
(I2
tp2898
g12
I00
S'\x01\x13IB\xf9\x15\x10C'
p2899
tp2900
bsVALGERIAN ENERGY CO
p2901
g2
(g3
(I0
tp2902
g5
tp2903
Rp2904
(I1
(I2
tp2905
g12
I00
S'\xa9\x85\x08\xc2\x86\xc52\xc3'
p2906
tp2907
bsVSHANXI ELECTRIC POWER CORP
p2908
g2
(g3
(I0
tp2909
g5
tp2910
Rp2911
(I1
(I2
tp2912
g12
I00
S'\xfe\xbc\nB\xa3\xb8\x17C'
p2913
tp2914
bsVKOREA HYDRO & NUCLEAR POWER CO
p2915
g2
(g3
(I0
tp2916
g5
tp2917
Rp2918
(I1
(I2
tp2919
g12
I00
S'\xaf\x87oC\xb5\xf7\x0fC'
p2920
tp2921
bsVELETROBRAS TERMONUCLEAR SA
p2922
g2
(g3
(I0
tp2923
g5
tp2924
Rp2925
(I1
(I2
tp2926
g12
I00
S'\xd9\x98S\xc2\x85-\xa5A'
p2927
tp2928
bsVGUODIAN TAIZHOU GENERATING CO
p2929
g2
(g3
(I0
tp2930
g5
tp2931
Rp2932
(I1
(I2
tp2933
g12
I00
S'C{cB\x8c\x87&C'
p2934
tp2935
bsVEMIRATES ALUMINIUM (EMAL)
p2936
g2
(g3
(I0
tp2937
g5
tp2938
Rp2939
(I1
(I2
tp2940
g12
I00
S'\xfeC\x02C\x14\x9c%\xc3'
p2941
tp2942
bsVNATSIONALNA ELEK KOMP (NEK)
p2943
g2
(g3
(I0
tp2944
g5
tp2945
Rp2946
(I1
(I2
tp2947
g12
I00
S'O\x95\xcaB\x04\x14\xef\xc2'
p2948
tp2949
bsVPROGRESS ENERGY CAROLINAS
p2950
g2
(g3
(I0
tp2951
g5
tp2952
Rp2953
(I1
(I2
tp2954
g12
I00
S'\xde=)\xc3\xb8\xa2\x8fB'
p2955
tp2956
bsS'RO'
p2957
g2
(g3
(I0
tp2958
g5
tp2959
Rp2960
(I1
(I2
tp2961
g12
I00
S'\xed\xbb\xc7A\xcc\xc57B'
p2962
tp2963
bsVEURASIAN ENERGY CORP (EEC)
p2964
g2
(g3
(I0
tp2965
g5
tp2966
Rp2967
(I1
(I2
tp2968
g12
I00
S'\x85 zC\xd9\xcf&B'
p2969
tp2970
bsVWESTERN KENTUCKY ENERGY
p2971
g2
(g3
(I0
tp2972
g5
tp2973
Rp2974
(I1
(I2
tp2975
g12
I00
S'\xe2\x91O\xc3A\x81zB'
p2976
tp2977
bsVALABAMA POWER CO
p2978
g2
(g3
(I0
tp2979
g5
tp2980
Rp2981
(I1
(I2
tp2982
g12
I00
S'5L-\xc3\x97R\x93B'
p2983
tp2984
bsVELECTRICITY SUPPLY BOARD (ESB)
p2985
g2
(g3
(I0
tp2986
g5
tp2987
Rp2988
(I1
(I2
tp2989
g12
I00
S'Bn\x95\xc2x;\xf9B'
p2990
tp2991
bsVE.ON UK PLC
p2992
g2
(g3
(I0
tp2993
g5
tp2994
Rp2995
(I1
(I2
tp2996
g12
I00
S')\xaf%Aub2\xc2'
p2997
tp2998
bsVINTERMOUNTAIN POWER AGCY
p2999
g2
(g3
(I0
tp3000
g5
tp3001
Rp3002
(I1
(I2
tp3003
g12
I00
S'\xcc\x01;\xc35\x84\xabB'
p3004
tp3005
bsS'KG'
p3006
g2
(g3
(I0
tp3007
g5
tp3008
Rp3009
(I1
(I2
tp3010
g12
I00
S'>\x88\x95BI\xd1$B'
p3011
tp3012
bsVCHINA HUADIAN INDONESIA
p3013
g2
(g3
(I0
tp3014
g5
tp3015
Rp3016
(I1
(I2
tp3017
g12
I00
S'O\x17\xbeB\xc2r\xb3\xc2'
p3018
tp3019
bsVHUNAN ELECTRIC POWER CO
p3020
g2
(g3
(I0
tp3021
g5
tp3022
Rp3023
(I1
(I2
tp3024
g12
I00
S'\xbd^IB\x8e\x97\x1bC'
p3025
tp3026
bsVENKA POWER
p3027
g2
(g3
(I0
tp3028
g5
tp3029
Rp3030
(I1
(I2
tp3031
g12
I00
S'\xbb\xfdY\xc2"\xae\xc3B'
p3032
tp3033
bsVBABCOCK & BROWN WIND PARTNERS
p3034
g2
(g3
(I0
tp3035
g5
tp3036
Rp3037
(I1
(I2
tp3038
g12
I00
S'R\x98\x04\xc3\x96\x8f\xa0A'
p3039
tp3040
bsVGUANGXI ELECTRIC POWER CORP
p3041
g2
(g3
(I0
tp3042
g5
tp3043
Rp3044
(I1
(I2
tp3045
g12
I00
S'\ry\x84Ba\xb4\x11C'
p3046
tp3047
bsVENERJISA ENERJI URETIM (ENE)
p3048
g2
(g3
(I0
tp3049
g5
tp3050
Rp3051
(I1
(I2
tp3052
g12
I00
S'J\xb9c\xc2\xdc\x14*C'
p3053
tp3054
bsVTRUENERGY LTD
p3055
g2
(g3
(I0
tp3056
g5
tp3057
Rp3058
(I1
(I2
tp3059
g12
I00
S'\x14\xf5\xfc\xbf\xa0i\xeb\xc2'
p3060
tp3061
bsVZHEJIANG JIAHUA POWER GEN CO
p3062
g2
(g3
(I0
tp3063
g5
tp3064
Rp3065
(I1
(I2
tp3066
g12
I00
S'\x96F\x1fB[# C'
p3067
tp3068
bsVCIA MEXICANA GEN OPER (COMEGO)
p3069
g2
(g3
(I0
tp3070
g5
tp3071
Rp3072
(I1
(I2
tp3073
g12
I00
S'\xaa\x07?\xc3\t\xb1(C'
p3074
tp3075
bsVOKINAWA ELECTRIC POWER CO
p3076
g2
(g3
(I0
tp3077
g5
tp3078
Rp3079
(I1
(I2
tp3080
g12
I00
S'P$\x93C\xae\xe9SB'
p3081
tp3082
bsVCENT ELET DO NORTE DO BRASIL
p3083
g2
(g3
(I0
tp3084
g5
tp3085
Rp3086
(I1
(I2
tp3087
g12
I00
S'\xf7 \\\xc2\xdc6\x11\xc1'
p3088
tp3089
bsVPT PEMBANGKITAN JAWA-BALI
p3090
g2
(g3
(I0
tp3091
g5
tp3092
Rp3093
(I1
(I2
tp3094
g12
I00
S'\xc6U\xb8B\xc1\r\x99\xc2'
p3095
tp3096
bsVBHUTAN POWER CORP LTD
p3097
g2
(g3
(I0
tp3098
g5
tp3099
Rp3100
(I1
(I2
tp3101
g12
I00
S'\xbd\xd5\x85B%\x9dcC'
p3102
tp3103
bsVEAST CHINA ELECTRIC POWER CORP
p3104
g2
(g3
(I0
tp3105
g5
tp3106
Rp3107
(I1
(I2
tp3108
g12
I00
S'/ZmB\xeby\x0fC'
p3109
tp3110
bsVENDESA CHILE
p3111
g2
(g3
(I0
tp3112
g5
tp3113
Rp3114
(I1
(I2
tp3115
g12
I00
S'\xf4\xed*\xc3A\xd5\xde\xc2'
p3116
tp3117
bsS'BR'
p3118
g2
(g3
(I0
tp3119
g5
tp3120
Rp3121
(I1
(I2
tp3122
g12
I00
S'}\xb3O\xc2\x94\xc2c\xc1'
p3123
tp3124
bsVDUKE ENERGY OHIO INC
p3125
g2
(g3
(I0
tp3126
g5
tp3127
Rp3128
(I1
(I2
tp3129
g12
I00
S'\xdcE6\xc3\xd6L\xa0B'
p3130
tp3131
bsVGLADSTONE POWER STATION
p3132
g2
(g3
(I0
tp3133
g5
tp3134
Rp3135
(I1
(I2
tp3136
g12
I00
S'\x99 \xa5\xc1\x16\xdf\xd1\xc2'
p3137
tp3138
bsVSARAWAK HIDRO SDN BHD
p3139
g2
(g3
(I0
tp3140
g5
tp3141
Rp3142
(I1
(I2
tp3143
g12
I00
S'_\x92vCO\x92\xe3B'
p3144
tp3145
bsVTIRRENO POWER SPA
p3146
g2
(g3
(I0
tp3147
g5
tp3148
Rp3149
(I1
(I2
tp3150
g12
I00
S'\xc5\xa4\x02B\x0e\xab\xc5\xc2'
p3151
tp3152
bsVTAIWAN POWER CO
p3153
g2
(g3
(I0
tp3154
g5
tp3155
Rp3156
(I1
(I2
tp3157
g12
I00
S'\xbe\xb9\x84C\xdb\xf2\x8b\xc2'
p3158
tp3159
bsVMIDAMERICAN ENERGY CO
p3160
g2
(g3
(I0
tp3161
g5
tp3162
Rp3163
(I1
(I2
tp3164
g12
I00
S'\xe4\x9d5\xc3Q*jB'
p3165
tp3166
bsVSHANXI ZHANGZE ELECTRIC POWER
p3167
g2
(g3
(I0
tp3168
g5
tp3169
Rp3170
(I1
(I2
tp3171
g12
I00
S'WI<B\xf4\xe6%C'
p3172
tp3173
bsVGENESIS ENERGY
p3174
g2
(g3
(I0
tp3175
g5
tp3176
Rp3177
(I1
(I2
tp3178
g12
I00
S',\xa9\x95C\xbc\x06\x0f\xc3'
p3179
tp3180
bsVINTERNATIONAL POWER PLC
p3181
g2
(g3
(I0
tp3182
g5
tp3183
Rp3184
(I1
(I2
tp3185
g12
I00
S'\x10[\x9bA\x00\xaeWB'
p3186
tp3187
bsVCHINA POWER INTL DEVELOP LTD
p3188
g2
(g3
(I0
tp3189
g5
tp3190
Rp3191
(I1
(I2
tp3192
g12
I00
S'{\x81;B$\xa2\xfaB'
p3193
tp3194
bsVCOGENTRIX ENERGY INC
p3195
g2
(g3
(I0
tp3196
g5
tp3197
Rp3198
(I1
(I2
tp3199
g12
I00
S'\xa5\x90\x03\xc3\xcb\x96eB'
p3200
tp3201
bsVSHAHID ABBASPOOR POWER GEN CO
p3202
g2
(g3
(I0
tp3203
g5
tp3204
Rp3205
(I1
(I2
tp3206
g12
I00
S'n\xe4\xb8B\xa6\xc3{C'
p3207
tp3208
bsS'PT'
p3209
g2
(g3
(I0
tp3210
g5
tp3211
Rp3212
(I1
(I2
tp3213
g12
I00
S']\x97\x03\xc1x\x99\x1dB'
p3214
tp3215
bsVAKALTARA POWER PROJECT
p3216
g2
(g3
(I0
tp3217
g5
tp3218
Rp3219
(I1
(I2
tp3220
g12
I00
S'\xa2\xa6#C\xd7\xcaAB'
p3221
tp3222
bsVCOMISION FEDERAL DE ELEC
p3223
g2
(g3
(I0
tp3224
g5
tp3225
Rp3226
(I1
(I2
tp3227
g12
I00
S"3'\x1f\xc3\xf9d\x1dC"
p3228
tp3229
bsVOGLETHORPE POWER CORP
p3230
g2
(g3
(I0
tp3231
g5
tp3232
Rp3233
(I1
(I2
tp3234
g12
I00
S'9\xb5J\xc36\xab`B'
p3235
tp3236
bsVNUCLEOELECTRICA ARGENTINA SA
p3237
g2
(g3
(I0
tp3238
g5
tp3239
Rp3240
(I1
(I2
tp3241
g12
I00
S'"\x8f \xc3F%T\xc3'
p3242
tp3243
bsVSOC TUNISIENNE ELEC GAZ
p3244
g2
(g3
(I0
tp3245
g5
tp3246
Rp3247
(I1
(I2
tp3248
g12
I00
S'\x12w\x83\xc2\xcb?\\C'
p3249
tp3250
bsVE.ON SVERIGE AB
p3251
g2
(g3
(I0
tp3252
g5
tp3253
Rp3254
(I1
(I2
tp3255
g12
I00
S'\x00y\x7fA\xa5LHC'
p3256
tp3257
bsS'PA'
p3258
g2
(g3
(I0
tp3259
g5
tp3260
Rp3261
(I1
(I2
tp3262
g12
I00
S's\x90\xa1\xc2\x92\x9b\x08A'
p3263
tp3264
bsVKORP ELEKTROENERG SHQIPETARE
p3265
g2
(g3
(I0
tp3266
g5
tp3267
Rp3268
(I1
(I2
tp3269
g12
I00
S'\xd3\x0c$\xc2\xecVoC'
p3270
tp3271
bsVHOKURIKU ELECTRIC POWER CO
p3272
g2
(g3
(I0
tp3273
g5
tp3274
Rp3275
(I1
(I2
tp3276
g12
I00
S'\x12e\x89C\x1f\xc3\x86B'
p3277
tp3278
bsS'PE'
p3279
g2
(g3
(I0
tp3280
g5
tp3281
Rp3282
(I1
(I2
tp3283
g12
I00
S'\xc2\x07\x96\xc2\x1b\n\x13\xc1'
p3284
tp3285
bsS'PK'
p3286
g2
(g3
(I0
tp3287
g5
tp3288
Rp3289
(I1
(I2
tp3290
g12
I00
S'\xb3\xb0\x8aB\xa8\x00\xf3A'
p3291
tp3292
bsS'PH'
p3293
g2
(g3
(I0
tp3294
g5
tp3295
Rp3296
(I1
(I2
tp3297
g12
I00
S'L\x8c\xf3BV\x13NA'
p3298
tp3299
bsVDNISTERHYDROENERGO
p3300
g2
(g3
(I0
tp3301
g5
tp3302
Rp3303
(I1
(I2
tp3304
g12
I00
S'M\xc7\x16C\xcd\x8a\xd5\xc2'
p3305
tp3306
bsVPORTLAND GENERAL ELEC CO
p3307
g2
(g3
(I0
tp3308
g5
tp3309
Rp3310
(I1
(I2
tp3311
g12
I00
S'\x99\x03>\xc3W\x8cRB'
p3312
tp3313
bsS'PL'
p3314
g2
(g3
(I0
tp3315
g5
tp3316
Rp3317
(I1
(I2
tp3318
g12
I00
S'=)\x99A\x81\xadOB'
p3319
tp3320
bsVNOK NORDOSTSCHWEIZERISCHE KW
p3321
g2
(g3
(I0
tp3322
g5
tp3323
Rp3324
(I1
(I2
tp3325
g12
I00
S'\n\x9b\xcd\xc0&\xf5\x1c\xc3'
p3326
tp3327
bsVDATANG GANDIAN
p3328
g2
(g3
(I0
tp3329
g5
tp3330
Rp3331
(I1
(I2
tp3332
g12
I00
S'\x92\xee BK\x17\x1aC'
p3333
tp3334
bsVHRVATSKA ELEKTROPRIVREDA (HEP)
p3335
g2
(g3
(I0
tp3336
g5
tp3337
Rp3338
(I1
(I2
tp3339
g12
I00
S'\xb4\xc6\x13C\xe4\x1e\xecB'
p3340
tp3341
bsVSHANDONG ZHONGHUA POWER CO LTD
p3342
g2
(g3
(I0
tp3343
g5
tp3344
Rp3345
(I1
(I2
tp3346
g12
I00
S'C\xf2\x0cB.\x8a\x05C'
p3347
tp3348
bsVYUNNAN HUANENG LANCANG HYDRO
p3349
g2
(g3
(I0
tp3350
g5
tp3351
Rp3352
(I1
(I2
tp3353
g12
I00
S'\x06\xe5vB\xd1L\x00C'
p3354
tp3355
bsVANHUI ELECTRIC POWER CO
p3356
g2
(g3
(I0
tp3357
g5
tp3358
Rp3359
(I1
(I2
tp3360
g12
I00
S'l\xcc+BS\x8f\xfeB'
p3361
tp3362
bsVFIRSTENERGY GENERATION CORP
p3363
g2
(g3
(I0
tp3364
g5
tp3365
Rp3366
(I1
(I2
tp3367
g12
I00
S'\x84\xdd%\xc3\x02\xaf[B'
p3368
tp3369
bsVPOSCO
p3370
g2
(g3
(I0
tp3371
g5
tp3372
Rp3373
(I1
(I2
tp3374
g12
I00
S'\xd9\xe3\x81C\xa9\x9f&C'
p3375
tp3376
bsVCENTRENERGO
p3377
g2
(g3
(I0
tp3378
g5
tp3379
Rp3380
(I1
(I2
tp3381
g12
I00
S'\x91\xaa\x13C\xf5\xdd\xa5\xc2'
p3382
tp3383
bsVKANSAS CITY POWER & LIGHT CO
p3384
g2
(g3
(I0
tp3385
g5
tp3386
Rp3387
(I1
(I2
tp3388
g12
I00
S'W\x93&\xc3\xee\x7fKB'
p3389
tp3390
bsVDYNEGY MIDWEST GENERATION
p3391
g2
(g3
(I0
tp3392
g5
tp3393
Rp3394
(I1
(I2
tp3395
g12
I00
S'g\x86,\xc3j`\x8aB'
p3396
tp3397
bsVJ-POWER
p3398
g2
(g3
(I0
tp3399
g5
tp3400
Rp3401
(I1
(I2
tp3402
g12
I00
S'\x068\x87CJ\xd3 B'
p3403
tp3404
bsVKHORASAN REGIONAL ELEC POWER
p3405
g2
(g3
(I0
tp3406
g5
tp3407
Rp3408
(I1
(I2
tp3409
g12
I00
S'6\x13\xc7Bv\xddfC'
p3410
tp3411
bsVZHEJIANG YANHAI POWER PLANT
p3412
g2
(g3
(I0
tp3413
g5
tp3414
Rp3415
(I1
(I2
tp3416
g12
I00
S'\xbd\xbf\x08B\xb9: C'
p3417
tp3418
bsVE.ON WASSERKRAFT GMBH
p3419
g2
(g3
(I0
tp3420
g5
tp3421
Rp3422
(I1
(I2
tp3423
g12
I00
S'\\\x92\xc7\xc2y57\xc2'
p3424
tp3425
bsVHYDRO-QUEBEC PRODUCTION INC
p3426
g2
(g3
(I0
tp3427
g5
tp3428
Rp3429
(I1
(I2
tp3430
g12
I00
S'n\x81l\xc3\xe0>\xdfB'
p3431
tp3432
bsVST PETERSBURG GENERATION CO
p3433
g2
(g3
(I0
tp3434
g5
tp3435
Rp3436
(I1
(I2
tp3437
g12
I00
S'\xba\xedTC\xb9U\x10\xc2'
p3438
tp3439
bsVKOLSKAYA GENERATION CO
p3440
g2
(g3
(I0
tp3441
g5
tp3442
Rp3443
(I1
(I2
tp3444
g12
I00
S'=\x0e\x7fCM\x08\x10\xc2'
p3445
tp3446
bsVHUAINAN COAL & ELEC BASE
p3447
g2
(g3
(I0
tp3448
g5
tp3449
Rp3450
(I1
(I2
tp3451
g12
I00
S'H\x98\x13B\x81\xdd#C'
p3452
tp3453
bsVUS BUREAU OF RECLAMATION
p3454
g2
(g3
(I0
tp3455
g5
tp3456
Rp3457
(I1
(I2
tp3458
g12
I00
S'V?(\xc3\x94\x8c\x87B'
p3459
tp3460
bsVKAZATOMPROM
p3461
g2
(g3
(I0
tp3462
g5
tp3463
Rp3464
(I1
(I2
tp3465
g12
I00
S'\xa1slCm\x8c\xd5\xc1'
p3466
tp3467
bsVLUMINANT POWER CO LLC
p3468
g2
(g3
(I0
tp3469
g5
tp3470
Rp3471
(I1
(I2
tp3472
g12
I00
S'\x8cs&\xc3\x1f\xc3{B'
p3473
tp3474
bsVFURNAS CENTRAIS ELETRICAS SA
p3475
g2
(g3
(I0
tp3476
g5
tp3477
Rp3478
(I1
(I2
tp3479
g12
I00
S'\x16\xfc\x99\xc2\xa8\xe4\x9f\xc1'
p3480
tp3481
bsVJIUQUAN IRON AND STEEL GROUP
p3482
g2
(g3
(I0
tp3483
g5
tp3484
Rp3485
(I1
(I2
tp3486
g12
I00
S'\xb2~\tBF>\x0eC'
p3487
tp3488
bsVSOUTHERN NUCLEAR OPERATING CO
p3489
g2
(g3
(I0
tp3490
g5
tp3491
Rp3492
(I1
(I2
tp3493
g12
I00
S'\xce\x15-\xc3\x02\xd5TB'
p3494
tp3495
bsVEVONIK STEAG GMBH
p3496
g2
(g3
(I0
tp3497
g5
tp3498
Rp3499
(I1
(I2
tp3500
g12
I00
S'-\xba\xc5\xc2w\x99\x01\xc2'
p3501
tp3502
bsVPUBLIC SERVICE COLORADO
p3503
g2
(g3
(I0
tp3504
g5
tp3505
Rp3506
(I1
(I2
tp3507
g12
I00
S'\x18>3\xc3+\xb4\x92B'
p3508
tp3509
bsVRAS LAFFAN-C PROJECT
p3510
g2
(g3
(I0
tp3511
g5
tp3512
Rp3513
(I1
(I2
tp3514
g12
I00
S'\x8d\x99cC\xf0U\x1f\xc1'
p3515
tp3516
bsVNORTH AMERICAN ENERGY SVCS CO
p3517
g2
(g3
(I0
tp3518
g5
tp3519
Rp3520
(I1
(I2
tp3521
g12
I00
S'\x1a\x1eK\xc3\xf6\x80\x99B'
p3522
tp3523
bsVADANI GROUP
p3524
g2
(g3
(I0
tp3525
g5
tp3526
Rp3527
(I1
(I2
tp3528
g12
I00
S'Q\xdb,C5\xe5\x19\xbf'
p3529
tp3530
bsVGULF ELECTRIC PUBLIC CO LTD
p3531
g2
(g3
(I0
tp3532
g5
tp3533
Rp3534
(I1
(I2
tp3535
g12
I00
S'\x90\xf2\x82Co\xe5\xd0\xc2'
p3536
tp3537
bsVGENTING SANYEN BHD
p3538
g2
(g3
(I0
tp3539
g5
tp3540
Rp3541
(I1
(I2
tp3542
g12
I00
S'z\xb7\xc5B\xfc\x8d\x03C'
p3543
tp3544
bsVKOREA ELECTRIC POWER CORP
p3545
g2
(g3
(I0
tp3546
g5
tp3547
Rp3548
(I1
(I2
tp3549
g12
I00
S'\xe7~\x85C\x8e9\x1cC'
p3550
tp3551
bsVAGL ENERGY LTD
p3552
g2
(g3
(I0
tp3553
g5
tp3554
Rp3555
(I1
(I2
tp3556
g12
I00
S'\x06\x19\xca\xc1KZ\xde\xc2'
p3557
tp3558
bsVMIDWEST GENERATION EME LLC
p3559
g2
(g3
(I0
tp3560
g5
tp3561
Rp3562
(I1
(I2
tp3563
g12
I00
S'\xd2\xae&\xc3\xc0BlB'
p3564
tp3565
bsVMINISTRY ELEC & COAL INDUSTRY
p3566
g2
(g3
(I0
tp3567
g5
tp3568
Rp3569
(I1
(I2
tp3570
g12
I00
S'ls\xa3C;\x1eDB'
p3571
tp3572
bsVSTP NUCLEAR OPERATING CO
p3573
g2
(g3
(I0
tp3574
g5
tp3575
Rp3576
(I1
(I2
tp3577
g12
I00
S'\x91r7\xc3\xdc:DB'
p3578
tp3579
bsVTEAM ENERGY CORP
p3580
g2
(g3
(I0
tp3581
g5
tp3582
Rp3583
(I1
(I2
tp3584
g12
I00
S'rh\xd3B\xd3\x80\xa8B'
p3585
tp3586
bsVCHINA RESOURCES POWER HOLDINGS
p3587
g2
(g3
(I0
tp3588
g5
tp3589
Rp3590
(I1
(I2
tp3591
g12
I00
S'\xdd\xbcVB`\xdb\xfdB'
p3592
tp3593
bsVCENT ELETRICAS BRASILEIRA SA
p3594
g2
(g3
(I0
tp3595
g5
tp3596
Rp3597
(I1
(I2
tp3598
g12
I00
S'\xf3=\x95\xc2W\x8bz\xc1'
p3599
tp3600
bsS'ZW'
p3601
g2
(g3
(I0
tp3602
g5
tp3603
Rp3604
(I1
(I2
tp3605
g12
I00
S'&=\xe9A\x9e\x1f\x98\xc1'
p3606
tp3607
bsVLIETUVOS ELEKTRINE AB
p3608
g2
(g3
(I0
tp3609
g5
tp3610
Rp3611
(I1
(I2
tp3612
g12
I00
S'\xb1\x00\xc5\xc2<\x1d\xc6A'
p3613
tp3614
bsVRATNAGIRI GAS & POWER PVT LTD
p3615
g2
(g3
(I0
tp3616
g5
tp3617
Rp3618
(I1
(I2
tp3619
g12
I00
S"\n\x1d,C\xd3'0B"
p3620
tp3621
bsVINTERGEN (UK) LTD
p3622
g2
(g3
(I0
tp3623
g5
tp3624
Rp3625
(I1
(I2
tp3626
g12
I00
S'x\xea\x91\xc2\x03TL\xc2'
p3627
tp3628
bsVKYIVENERGO
p3629
g2
(g3
(I0
tp3630
g5
tp3631
Rp3632
(I1
(I2
tp3633
g12
I00
S'\xdf.\x0eC\xf9\xe8\xeb\xc2'
p3634
tp3635
bsVELECTRABEL ESPANA SA
p3636
g2
(g3
(I0
tp3637
g5
tp3638
Rp3639
(I1
(I2
tp3640
g12
I00
S'\xfb\xa2\x84\xc2\xa7\x0b\xad\xc2'
p3641
tp3642
bsVQINGHAI ELECTRIC POWER CORP
p3643
g2
(g3
(I0
tp3644
g5
tp3645
Rp3646
(I1
(I2
tp3647
g12
I00
S'b\xabBB\xc8\xf5 C'
p3648
tp3649
bsVCM ARGENTINO-PARAGUAY R PARANA
p3650
g2
(g3
(I0
tp3651
g5
tp3652
Rp3653
(I1
(I2
tp3654
g12
I00
S'x\xc1\x14\xc3\xbb$T\xc3'
p3655
tp3656
bsS'CO'
p3657
g2
(g3
(I0
tp3658
g5
tp3659
Rp3660
(I1
(I2
tp3661
g12
I00
S'<\x98\x94\xc2\x8dD\x92@'
p3662
tp3663
bsVPT INDONESIA POWER - SURALAYA
p3664
g2
(g3
(I0
tp3665
g5
tp3666
Rp3667
(I1
(I2
tp3668
g12
I00
S't\x91\xa7B`\x1a\xa5\xc2'
p3669
tp3670
bsS'CL'
p3671
g2
(g3
(I0
tp3672
g5
tp3673
Rp3674
(I1
(I2
tp3675
g12
I00
S'\x00\x16\x8f\xc2Z\xb3\x0e\xc2'
p3676
tp3677
bsVSTATKRAFT AS
p3678
g2
(g3
(I0
tp3679
g5
tp3680
Rp3681
(I1
(I2
tp3682
g12
I00
S'\xf5\x8e\xe9\xc2\xd0\xbfAC'
p3683
tp3684
bsS'CA'
p3685
g2
(g3
(I0
tp3686
g5
tp3687
Rp3688
(I1
(I2
tp3689
g12
I00
S'\x8c\xb1\xd4\xc2\x7f\x85`B'
p3690
tp3691
bsVCNOOC GAS & POWER LTD
p3692
g2
(g3
(I0
tp3693
g5
tp3694
Rp3695
(I1
(I2
tp3696
g12
I00
S"\xcf\xc9'B\xe1\xb1\x0bC"
p3697
tp3698
bsS'CG'
p3699
g2
(g3
(I0
tp3700
g5
tp3701
Rp3702
(I1
(I2
tp3703
g12
I00
S'\x17>}AV~i\xbe'
p3704
tp3705
bsVKERNKRAFTWERK GREIFSWALD GMBH
p3706
g2
(g3
(I0
tp3707
g5
tp3708
Rp3709
(I1
(I2
tp3710
g12
I00
S'\x8cn\xd4\xc2 R\x0e\xc2'
p3711
tp3712
bsS'CZ'
p3713
g2
(g3
(I0
tp3714
g5
tp3715
Rp3716
(I1
(I2
tp3717
g12
I00
S'A\x91wA\x1dEGB'
p3718
tp3719
bsVCHINA GUANGDONG NUCLEAR POWER
p3720
g2
(g3
(I0
tp3721
g5
tp3722
Rp3723
(I1
(I2
tp3724
g12
I00
S'hLqB\x860\x05C'
p3725
tp3726
bsVSOUTH CHINA ELEC POWER JV
p3727
g2
(g3
(I0
tp3728
g5
tp3729
Rp3730
(I1
(I2
tp3731
g12
I00
S'\xcfLsB\x81I\nC'
p3732
tp3733
bsVMT HOPE HYDRO INC
p3734
g2
(g3
(I0
tp3735
g5
tp3736
Rp3737
(I1
(I2
tp3738
g12
I00
S'bmO\xc3\xefQ\x8cB'
p3739
tp3740
bsVENDESA FRANCE
p3741
g2
(g3
(I0
tp3742
g5
tp3743
Rp3744
(I1
(I2
tp3745
g12
I00
S'Q_\x97\xc2\x163FC'
p3746
tp3747
bsS'CU'
p3748
g2
(g3
(I0
tp3749
g5
tp3750
Rp3751
(I1
(I2
tp3752
g12
I00
S'\xf5\x8f\x9b\xc2\x8f,\xacA'
p3753
tp3754
bsVTAIWAN COGENERATION CORP
p3755
g2
(g3
(I0
tp3756
g5
tp3757
Rp3758
(I1
(I2
tp3759
g12
I00
S"'\x8d\x99C\xec\xb4v\xc2"
p3760
tp3761
bsVRAO UES RUSSIA
p3762
g2
(g3
(I0
tp3763
g5
tp3764
Rp3765
(I1
(I2
tp3766
g12
I00
S'?\x14\x89C\x02\x07\x94\xc1'
p3767
tp3768
bsVATOMIC ENERGY ORGANIZ IRAN
p3769
g2
(g3
(I0
tp3770
g5
tp3771
Rp3772
(I1
(I2
tp3773
g12
I00
S'\xc7\x9f\x19B\xff\\jC'
p3774
tp3775
bsVE.ON KRAFTWERKE GMBH
p3776
g2
(g3
(I0
tp3777
g5
tp3778
Rp3779
(I1
(I2
tp3780
g12
I00
S'\xc5\xb6\xb4\xc2\x1cG\xff\xc1'
p3781
tp3782
bsVSUNFLOWER ELECTRIC COOP
p3783
g2
(g3
(I0
tp3784
g5
tp3785
Rp3786
(I1
(I2
tp3787
g12
I00
S'2QB\xc3J\x19cB'
p3788
tp3789
bsVSOMA KYODO POWER CO
p3790
g2
(g3
(I0
tp3791
g5
tp3792
Rp3793
(I1
(I2
tp3794
g12
I00
S'\xf3\xc2\x95C\xbf\xa80B'
p3795
tp3796
bsVSHENZHEN ENERGY GROUP CO LTD
p3797
g2
(g3
(I0
tp3798
g5
tp3799
Rp3800
(I1
(I2
tp3801
g12
I00
S'J\xa6#BEH\x06C'
p3802
tp3803
bsVSANTEE COOPER
p3804
g2
(g3
(I0
tp3805
g5
tp3806
Rp3807
(I1
(I2
tp3808
g12
I00
S'\xc3>6\xc3\xe7\x8d\x89B'
p3809
tp3810
bsVPACIFICORP
p3811
g2
(g3
(I0
tp3812
g5
tp3813
Rp3814
(I1
(I2
tp3815
g12
I00
S'b\xaa2\xc3\xb7\x0c\x86B'
p3816
tp3817
bsVOGK-2 (SECOND GENERATION CO)
p3818
g2
(g3
(I0
tp3819
g5
tp3820
Rp3821
(I1
(I2
tp3822
g12
I00
S'a\xd9\x84C\xcb_\x12@'
p3823
tp3824
bsVVIETNAM MACHINERY - LILAMA
p3825
g2
(g3
(I0
tp3826
g5
tp3827
Rp3828
(I1
(I2
tp3829
g12
I00
S'b2iCfd\xfe\xc2'
p3830
tp3831
bsVDNIPROENERGO
p3832
g2
(g3
(I0
tp3833
g5
tp3834
Rp3835
(I1
(I2
tp3836
g12
I00
S'H\x8c\x08C\xb1R\xb2\xc2'
p3837
tp3838
bsVMP POWER GENERATING CO LTD
p3839
g2
(g3
(I0
tp3840
g5
tp3841
Rp3842
(I1
(I2
tp3843
g12
I00
S'4\x89"CmV\x0fB'
p3844
tp3845
bsVZHEJIANG ZHENENG LANXI POWER
p3846
g2
(g3
(I0
tp3847
g5
tp3848
Rp3849
(I1
(I2
tp3850
g12
I00
S'\x9e\xcd"B8(&C'
p3851
tp3852
bsVJHARKHAND STATE ELEC BOARD
p3853
g2
(g3
(I0
tp3854
g5
tp3855
Rp3856
(I1
(I2
tp3857
g12
I00
S'\xba+1C\xae-\x15B'
p3858
tp3859
bsVHUBEI QINGJIANG HYDRO DEV CO
p3860
g2
(g3
(I0
tp3861
g5
tp3862
Rp3863
(I1
(I2
tp3864
g12
I00
S'\xd5\r\xf9A\xf3J\x15C'
p3865
tp3866
bsVWESTERN FARMERS ELEC COOP (OK)
p3867
g2
(g3
(I0
tp3868
g5
tp3869
Rp3870
(I1
(I2
tp3871
g12
I00
S'\x00\xeeL\xc3\x05TOB'
p3872
tp3873
bsVBHAKRA BEAS MANAGEMENT BOARD
p3874
g2
(g3
(I0
tp3875
g5
tp3876
Rp3877
(I1
(I2
tp3878
g12
I00
S'E\x07-C\x94zvA'
p3879
tp3880
bsVMAHARASHTRA STATE POWER GEN CO
p3881
g2
(g3
(I0
tp3882
g5
tp3883
Rp3884
(I1
(I2
tp3885
g12
I00
S'\x15+\x14C\xe0\xdb\xdcA'
p3886
tp3887
bsVTRI-STATE G&T ASSOCIATION (CO)
p3888
g2
(g3
(I0
tp3889
g5
tp3890
Rp3891
(I1
(I2
tp3892
g12
I00
S'\x1a\xeb>\xc3\x15^\x9cB'
p3893
tp3894
bsVZIMBABWE POWER CO (ZPC)
p3895
g2
(g3
(I0
tp3896
g5
tp3897
Rp3898
(I1
(I2
tp3899
g12
I00
S'K\t\x88B`\x0b\\\xc3'
p3900
tp3901
bsVENTERGY ARKANSAS INC
p3902
g2
(g3
(I0
tp3903
g5
tp3904
Rp3905
(I1
(I2
tp3906
g12
I00
S'\xdb\xd29\xc3\xfd\x97\x83B'
p3907
tp3908
bsVESSENT NV
p3909
g2
(g3
(I0
tp3910
g5
tp3911
Rp3912
(I1
(I2
tp3913
g12
I00
S'\xdb\x91\xbbA\x9d\xa9~\xc2'
p3914
tp3915
bsVKOREA MIDLAND POWER (KOMIPO)
p3916
g2
(g3
(I0
tp3917
g5
tp3918
Rp3919
(I1
(I2
tp3920
g12
I00
S'<\x91{CJF\x0eC'
p3921
tp3922
bsVSATLUJ JAL VIDYUT NIGAM LTD
p3923
g2
(g3
(I0
tp3924
g5
tp3925
Rp3926
(I1
(I2
tp3927
g12
I00
S"[\x88&CL\x93'A"
p3928
tp3929
bsVEDP PRODUCAO
p3930
g2
(g3
(I0
tp3931
g5
tp3932
Rp3933
(I1
(I2
tp3934
g12
I00
S'\x9dp\x87\xc2\xcb@\x00\xc3'
p3935
tp3936
bsVMANITOBA HYDRO
p3937
g2
(g3
(I0
tp3938
g5
tp3939
Rp3940
(I1
(I2
tp3941
g12
I00
S'\x0e\x17v\xc3~\x98\xd7B'
p3942
tp3943
bsVUNION ELECTRICA (UNE)
p3944
g2
(g3
(I0
tp3945
g5
tp3946
Rp3947
(I1
(I2
tp3948
g12
I00
S'\xd7\xb1\x87\xc3;<%\xc2'
p3949
tp3950
bsVNATIONAL ELEC CORP (NEC)
p3951
g2
(g3
(I0
tp3952
g5
tp3953
Rp3954
(I1
(I2
tp3955
g12
I00
S'\xe0\xd5\x8bBE\xf0<\xc3'
p3956
tp3957
bsVENDESA GENERACION SA
p3958
g2
(g3
(I0
tp3959
g5
tp3960
Rp3961
(I1
(I2
tp3962
g12
I00
S'\xb9\xa5^\xc2\r\xc6h\xc2'
p3963
tp3964
bsVCOVANTA ENERGY CORP
p3965
g2
(g3
(I0
tp3966
g5
tp3967
Rp3968
(I1
(I2
tp3969
g12
I00
S"\xf1\x1cF\xc3\xdc\xc9'B"
p3970
tp3971
bsVE.ON BENELUX BV
p3972
g2
(g3
(I0
tp3973
g5
tp3974
Rp3975
(I1
(I2
tp3976
g12
I00
S'\r\rbB@\xe9\x8b\xc2'
p3977
tp3978
bsVNORTHERN POWER GEN CO LTD
p3979
g2
(g3
(I0
tp3980
g5
tp3981
Rp3982
(I1
(I2
tp3983
g12
I00
S'-\xa8\xc5B2\x86\x1d\xc2'
p3984
tp3985
bsVBAKHTAR REGIONAL ELEC POWER CO
p3986
g2
(g3
(I0
tp3987
g5
tp3988
Rp3989
(I1
(I2
tp3990
g12
I00
S'W\x9c\xdfB\xe6leC'
p3991
tp3992
bsVSHANXI LUNENG HEQU POWER GEN
p3993
g2
(g3
(I0
tp3994
g5
tp3995
Rp3996
(I1
(I2
tp3997
g12
I00
S'h-XB\x0c}!C'
p3998
tp3999
bsVZES ELEK PATNOW-ADAMOW-KONIN
p4000
g2
(g3
(I0
tp4001
g5
tp4002
Rp4003
(I1
(I2
tp4004
g12
I00
S'\xe1\xe8\x06\xc34o\x97\xc2'
p4005
tp4006
bsVENTERGY NUCLEAR INC
p4007
g2
(g3
(I0
tp4008
g5
tp4009
Rp4010
(I1
(I2
tp4011
g12
I00
S'\x15>"\xc3<&QB'
p4012
tp4013
bsVALCAN PRIMARY METAL GROUP
p4014
g2
(g3
(I0
tp4015
g5
tp4016
Rp4017
(I1
(I2
tp4018
g12
I00
S'<\xa2\x80\xc3m\xdf\xb4B'
p4019
tp4020
bsS'VE'
p4021
g2
(g3
(I0
tp4022
g5
tp4023
Rp4024
(I1
(I2
tp4025
g12
I00
S'\xf1-\x85\xc2\\\x8f\xcd@'
p4026
tp4027
bsVMINISTRY OF ENERGY (KW)
p4028
g2
(g3
(I0
tp4029
g5
tp4030
Rp4031
(I1
(I2
tp4032
g12
I00
S'\x10-!C6\xd0\xe8\xc2'
p4033
tp4034
bsS'IQ'
p4035
g2
(g3
(I0
tp4036
g5
tp4037
Rp4038
(I1
(I2
tp4039
g12
I00
S'\x98\xb7.B\x8c\xe4\x04B'
p4040
tp4041
bsS'IS'
p4042
g2
(g3
(I0
tp4043
g5
tp4044
Rp4045
(I1
(I2
tp4046
g12
I00
S'\xac*\x98\xc1\x15\xed\x81B'
p4047
tp4048
bsS'IR'
p4049
g2
(g3
(I0
tp4050
g5
tp4051
Rp4052
(I1
(I2
tp4053
g12
I00
S'\x8f\xc0VB.\xb6\x01B'
p4054
tp4055
bsS'IT'
p4056
g2
(g3
(I0
tp4057
g5
tp4058
Rp4059
(I1
(I2
tp4060
g12
I00
S"\xfd\x13IA\xde|'B"
p4061
tp4062
bsS'VN'
p4063
g2
(g3
(I0
tp4064
g5
tp4065
Rp4066
(I1
(I2
tp4067
g12
I00
S'\xed\x8d\xd8B\xe5\xee`A'
p4068
tp4069
bsVAQUILA INC
p4070
g2
(g3
(I0
tp4071
g5
tp4072
Rp4073
(I1
(I2
tp4074
g12
I00
S'r<I\xc3.O\x84B'
p4075
tp4076
bsVVATTENFALL THERMAL DENMARK
p4077
g2
(g3
(I0
tp4078
g5
tp4079
Rp4080
(I1
(I2
tp4081
g12
I00
S'\xc7,\x06C2\xa5\xb1B'
p4082
tp4083
bsVHEBEI XIBAIPO POWER GENERATION
p4084
g2
(g3
(I0
tp4085
g5
tp4086
Rp4087
(I1
(I2
tp4088
g12
I00
S'\x96-0B\xe0\x05)C'
p4089
tp4090
bsS'IL'
p4091
g2
(g3
(I0
tp4092
g5
tp4093
Rp4094
(I1
(I2
tp4095
g12
I00
S'\rh\x0bBP^\xf8A'
p4096
tp4097
bsVSC HIDROELECTRICA SA
p4098
g2
(g3
(I0
tp4099
g5
tp4100
Rp4101
(I1
(I2
tp4102
g12
I00
S'\xc1f\x03C\xed\xf2PC'
p4103
tp4104
bsS'IN'
p4105
g2
(g3
(I0
tp4106
g5
tp4107
Rp4108
(I1
(I2
tp4109
g12
I00
S'\xff\xec\x9dB\xdd\xbf\xa4A'
p4110
tp4111
bsVSHENZHEN NANSHAN POWER STA CO
p4112
g2
(g3
(I0
tp4113
g5
tp4114
Rp4115
(I1
(I2
tp4116
g12
I00
S'\x0e\xd3BB\x13\x03+C'
p4117
tp4118
bsS'IE'
p4119
g2
(g3
(I0
tp4120
g5
tp4121
Rp4122
(I1
(I2
tp4123
g12
I00
S'\xf9\xe6\x03\xc1\xd2\xa6UB'
p4124
tp4125
bsS'ID'
p4126
g2
(g3
(I0
tp4127
g5
tp4128
Rp4129
(I1
(I2
tp4130
g12
I00
S'\xb8\xd7\xe3B\xed\rJ\xbf'
p4131
tp4132
bsVTAVANIR CORP
p4133
g2
(g3
(I0
tp4134
g5
tp4135
Rp4136
(I1
(I2
tp4137
g12
I00
S'\x80o\xa9BxW`C'
p4138
tp4139
bsVENERGOATOM
p4140
g2
(g3
(I0
tp4141
g5
tp4142
Rp4143
(I1
(I2
tp4144
g12
I00
S'\xe2\x9b\x00CO\xac\xa1\xc2'
p4145
tp4146
bsVELEC GEN PUBLIC CO (EGCO)
p4147
g2
(g3
(I0
tp4148
g5
tp4149
Rp4150
(I1
(I2
tp4151
g12
I00
S'B\xed{C\xbb\xdf\xc5\xc2'
p4152
tp4153
bsVELECTRICITE DE FRANCE SA (EDF)
p4154
g2
(g3
(I0
tp4155
g5
tp4156
Rp4157
(I1
(I2
tp4158
g12
I00
S'\r\x93\x91\xc22\xa7/C'
p4159
tp4160
bsVKEYSPAN GENERATION LLC
p4161
g2
(g3
(I0
tp4162
g5
tp4163
Rp4164
(I1
(I2
tp4165
g12
I00
S'C\xed/\xc3)\xf5\x1eB'
p4166
tp4167
bsS'MZ'
p4168
g2
(g3
(I0
tp4169
g5
tp4170
Rp4171
(I1
(I2
tp4172
g12
I00
S'F\x1e\x0eBXS\x95\xc1'
p4173
tp4174
bsVTULA REGIONAL GENERATION
p4175
g2
(g3
(I0
tp4176
g5
tp4177
Rp4178
(I1
(I2
tp4179
g12
I00
S'V=\x87Cwf\xeb\xc1'
p4180
tp4181
bsS'BD'
p4182
g2
(g3
(I0
tp4183
g5
tp4184
Rp4185
(I1
(I2
tp4186
g12
I00
S'q\xb6\xb4B\xdez\xbdA'
p4187
tp4188
bsS'BE'
p4189
g2
(g3
(I0
tp4190
g5
tp4191
Rp4192
(I1
(I2
tp4193
g12
I00
S'\xb7\t\x8f@\xfb\x03JB'
p4194
tp4195
bsS'BG'
p4196
g2
(g3
(I0
tp4197
g5
tp4198
Rp4199
(I1
(I2
tp4200
g12
I00
S'\xfb\xe2\xcbA\x7f\xef*B'
p4201
tp4202
bsS'BA'
p4203
g2
(g3
(I0
tp4204
g5
tp4205
Rp4206
(I1
(I2
tp4207
g12
I00
S'\xbfn\x8dA\xde\xa9/B'
p4208
tp4209
bsVNORTH EASTERN ELECTRIC POWER
p4210
g2
(g3
(I0
tp4211
g5
tp4212
Rp4213
(I1
(I2
tp4214
g12
I00
S'\x98\xc0\x1aC\xe6\x84\xe1A'
p4215
tp4216
bsVCMS INDIA
p4217
g2
(g3
(I0
tp4218
g5
tp4219
Rp4220
(I1
(I2
tp4221
g12
I00
S"_\x087C\xda'\xd3A"
p4222
tp4223
bsS'BH'
p4224
g2
(g3
(I0
tp4225
g5
tp4226
Rp4227
(I1
(I2
tp4228
g12
I00
S'\x14\x8dJB}q\xcfA'
p4229
tp4230
bsVTABRIZ POWER GENERATION MGMT
p4231
g2
(g3
(I0
tp4232
g5
tp4233
Rp4234
(I1
(I2
tp4235
g12
I00
S'\xf9\x91MB\xc8\xadqC'
p4236
tp4237
bsS'BT'
p4238
g2
(g3
(I0
tp4239
g5
tp4240
Rp4241
(I1
(I2
tp4242
g12
I00
S'\x01\xde\xb4B\x01\x1d\xdcA'
p4243
tp4244
bsVCPFL GERACAO
p4245
g2
(g3
(I0
tp4246
g5
tp4247
Rp4248
(I1
(I2
tp4249
g12
I00
S'&\xd6|\xc2)_\x94?'
p4250
tp4251
bsS'BW'
p4252
g2
(g3
(I0
tp4253
g5
tp4254
Rp4255
(I1
(I2
tp4256
g12
I00
S'\x9bz\xc5A\xb7\xa0\xb2\xc1'
p4257
tp4258
bsVTGK-01 (TERRITORIAL GEN CO 1)
p4259
g2
(g3
(I0
tp4260
g5
tp4261
Rp4262
(I1
(I2
tp4263
g12
I00
S',8WC\xe5\xce\xe5\xc1'
p4264
tp4265
bsVISAGEN SA ESP
p4266
g2
(g3
(I0
tp4267
g5
tp4268
Rp4269
(I1
(I2
tp4270
g12
I00
S'\x99\x8cC\xc3\xf9\xb3\xf4\xc2'
p4271
tp4272
bsVXISHAN COAL AND ELECTRICITY
p4273
g2
(g3
(I0
tp4274
g5
tp4275
Rp4276
(I1
(I2
tp4277
g12
I00
S'\x87\xd73B\xc6\xab\x1cC'
p4278
tp4279
bsVSITHE GLOBAL POWER LLC
p4280
g2
(g3
(I0
tp4281
g5
tp4282
Rp4283
(I1
(I2
tp4284
g12
I00
S'\x1eZI\xc36\xca\xa1B'
p4285
tp4286
bsVKERALA STATE ELECTRICITY BOARD
p4287
g2
(g3
(I0
tp4288
g5
tp4289
Rp4290
(I1
(I2
tp4291
g12
I00
S'\xaf\x16.C\xa1\x11\xd2A'
p4292
tp4293
bsS'BY'
p4294
g2
(g3
(I0
tp4295
g5
tp4296
Rp4297
(I1
(I2
tp4298
g12
I00
S'\x8a\xa0\xdfA\xd8\xd6VB'
p4299
tp4300
bsVENEL GREENPOWER
p4301
g2
(g3
(I0
tp4302
g5
tp4303
Rp4304
(I1
(I2
tp4305
g12
I00
S"\x15'&B\x87\xd0\xd5\xc2"
p4306
tp4307
bsVSAUDI ELECTRICITY CO
p4308
g2
(g3
(I0
tp4309
g5
tp4310
Rp4311
(I1
(I2
tp4312
g12
I00
S'\xf8\xb3\x80?\xefS4C'
p4313
tp4314
bsVUNION FENOSA MEXICO
p4315
g2
(g3
(I0
tp4316
g5
tp4317
Rp4318
(I1
(I2
tp4319
g12
I00
S'O\xbb0\xc3x\xe8.C'
p4320
tp4321
bsVMACQUARIE GENERATION
p4322
g2
(g3
(I0
tp4323
g5
tp4324
Rp4325
(I1
(I2
tp4326
g12
I00
S'\x15\xae7\xc1\x83\xd1\xb4\xc2'
p4327
tp4328
bsVENTERGY LOUISIANA LLC
p4329
g2
(g3
(I0
tp4330
g5
tp4331
Rp4332
(I1
(I2
tp4333
g12
I00
S'U\xd79\xc3\xdc\xeeRB'
p4334
tp4335
bsVHONGKONG ELECTRIC HOLDINGS LTD
p4336
g2
(g3
(I0
tp4337
g5
tp4338
Rp4339
(I1
(I2
tp4340
g12
I00
S'a2\x1fB\x9d\xe5\x0fC'
p4341
tp4342
bsVCLP GROUP
p4343
g2
(g3
(I0
tp4344
g5
tp4345
Rp4346
(I1
(I2
tp4347
g12
I00
S'r\r\x1eB\xf8D\x02C'
p4348
tp4349
bsVPRAGATI POWER CORP LTD
p4350
g2
(g3
(I0
tp4351
g5
tp4352
Rp4353
(I1
(I2
tp4354
g12
I00
S'dd6Cp\x06$B'
p4355
tp4356
bsVMINISTRY OF ELECTRIC POWER
p4357
g2
(g3
(I0
tp4358
g5
tp4359
Rp4360
(I1
(I2
tp4361
g12
I00
S'\xba\x9eGC($"\xc2'
p4362
tp4363
bsVPSEG GLOBAL LLC
p4364
g2
(g3
(I0
tp4365
g5
tp4366
Rp4367
(I1
(I2
tp4368
g12
I00
S'\xa2*\n\xc3o\x9ceB'
p4369
tp4370
bsVESFAHAN REGIONAL ELEC POWER CO
p4371
g2
(g3
(I0
tp4372
g5
tp4373
Rp4374
(I1
(I2
tp4375
g12
I00
S'\x94\x13\xdaB\x10\xbcrC'
p4376
tp4377
bsVTENAGA NASIONAL BERHAD (TNB)
p4378
g2
(g3
(I0
tp4379
g5
tp4380
Rp4381
(I1
(I2
tp4382
g12
I00
S'?\xd0_C\x08\x1b\xdeB'
p4383
tp4384
bsVKRASNOYARSK GENERATION CO
p4385
g2
(g3
(I0
tp4386
g5
tp4387
Rp4388
(I1
(I2
tp4389
g12
I00
S'\xa9P\x84C\xafW\xf8\xc1'
p4390
tp4391
bsVCOLBUN SA
p4392
g2
(g3
(I0
tp4393
g5
tp4394
Rp4395
(I1
(I2
tp4396
g12
I00
S'\x0e&\x19\xc3dV\x01\xc3'
p4397
tp4398
bsVTEHRI HYDRO DEVELOPMENT CORP
p4399
g2
(g3
(I0
tp4400
g5
tp4401
Rp4402
(I1
(I2
tp4403
g12
I00
S"hq'C\xb8se@"
p4404
tp4405
bsVTENNESSEE VALLEY AUTH
p4406
g2
(g3
(I0
tp4407
g5
tp4408
Rp4409
(I1
(I2
tp4410
g12
I00
S'\xa9p*\xc3\xf8X\x81B'
p4411
tp4412
bsVELEKTROPRIVREDA SRBIJE (EPS)
p4413
g2
(g3
(I0
tp4414
g5
tp4415
Rp4416
(I1
(I2
tp4417
g12
I00
S'\x94:\x1e\xc2@(]C'
p4418
tp4419
bsVSHIKOKU ELECTRIC POWER CO
p4420
g2
(g3
(I0
tp4421
g5
tp4422
Rp4423
(I1
(I2
tp4424
g12
I00
S'/\xd1\x8dCu\x7fLB'
p4425
tp4426
bsVRINGHALS AB
p4427
g2
(g3
(I0
tp4428
g5
tp4429
Rp4430
(I1
(I2
tp4431
g12
I00
S'}BiA\xb6\x95\x80C'
p4432
tp4433
bsVNOVA SCOTIA POWER INC
p4434
g2
(g3
(I0
tp4435
g5
tp4436
Rp4437
(I1
(I2
tp4438
g12
I00
S'b\x83\x80\xc3\xb0L\xc3B'
p4439
tp4440
bsVSOUTHERN CALIF EDISON CO
p4441
g2
(g3
(I0
tp4442
g5
tp4443
Rp4444
(I1
(I2
tp4445
g12
I00
S'\x94,6\xc3\x16`\x98B'
p4446
tp4447
bsVEXXONMOBIL CORP
p4448
g2
(g3
(I0
tp4449
g5
tp4450
Rp4451
(I1
(I2
tp4452
g12
I00
S'@\x99\xe3\xc2l\x0e\xddA'
p4453
tp4454
bsVCHATTISGARH STATE ELEC BOARD
p4455
g2
(g3
(I0
tp4456
g5
tp4457
Rp4458
(I1
(I2
tp4459
g12
I00
S"O\xce'C\x9a0\xf3A"
p4460
tp4461
bsVCME ENERGY
p4462
g2
(g3
(I0
tp4463
g5
tp4464
Rp4465
(I1
(I2
tp4466
g12
I00
S'\x01\x8cF\xc36+~B'
p4467
tp4468
bsS'OM'
p4469
g2
(g3
(I0
tp4470
g5
tp4471
Rp4472
(I1
(I2
tp4473
g12
I00
S'j\xb1_B\xc5\x19\xacA'
p4474
tp4475
bsVWIENSTROM GMBH
p4476
g2
(g3
(I0
tp4477
g5
tp4478
Rp4479
(I1
(I2
tp4480
g12
I00
S'e`)CZ\x07DC'
p4481
tp4482
bsVCENTRICA ENERGY
p4483
g2
(g3
(I0
tp4484
g5
tp4485
Rp4486
(I1
(I2
tp4487
g12
I00
S'\xc5\xa7\xa0\xc1\xfb\xf78\xc2'
p4488
tp4489
bsVSPE-LUMINUS
p4490
g2
(g3
(I0
tp4491
g5
tp4492
Rp4493
(I1
(I2
tp4494
g12
I00
S'\x83\x9f\xa3\xc1s\x95\x11\xc3'
p4495
tp4496
bsVVOSTOKENERGO LLC
p4497
g2
(g3
(I0
tp4498
g5
tp4499
Rp4500
(I1
(I2
tp4501
g12
I00
S'\x83\xd1\xfaB\xc1\x96\xd6\xc2'
p4502
tp4503
bsVHUNAN HUAYIN ELECTRIC POWER CO
p4504
g2
(g3
(I0
tp4505
g5
tp4506
Rp4507
(I1
(I2
tp4508
g12
I00
S'Y\x86YB\x88\xe6\x17C'
p4509
tp4510
bsVCENTRAL NUCLEAR DE ASCO
p4511
g2
(g3
(I0
tp4512
g5
tp4513
Rp4514
(I1
(I2
tp4515
g12
I00
S'\x9f#\xab\xc2\xf5\xd2\xaf\xc2'
p4516
tp4517
bsVWE POWER LLC
p4518
g2
(g3
(I0
tp4519
g5
tp4520
Rp4521
(I1
(I2
tp4522
g12
I00
S'\x96\x1e=\xc3\x04\xf2\x17B'
p4523
tp4524
bsVHUADIAN POWER INTL CORP
p4525
g2
(g3
(I0
tp4526
g5
tp4527
Rp4528
(I1
(I2
tp4529
g12
I00
S'\x83\x01JBCB\nC'
p4530
tp4531
bsVEDISON MISSION ENERGY
p4532
g2
(g3
(I0
tp4533
g5
tp4534
Rp4535
(I1
(I2
tp4536
g12
I00
S'r\x92B\xc3\xd6\x1cAB'
p4537
tp4538
bsS'SK'
p4539
g2
(g3
(I0
tp4540
g5
tp4541
Rp4542
(I1
(I2
tp4543
g12
I00
S'\x9a\x97\x9dA\x15\xadBB'
p4544
tp4545
bsVCIA GERACAO ELET PARANAPANEMA
p4546
g2
(g3
(I0
tp4547
g5
tp4548
Rp4549
(I1
(I2
tp4550
g12
I00
S'\xce\x05\x81\xc2=\x99\x00B'
p4551
tp4552
bsVSTATE POWER PROCUREMENT CENTRE
p4553
g2
(g3
(I0
tp4554
g5
tp4555
Rp4556
(I1
(I2
tp4557
g12
I00
S"\x9b\xc2'Cx)\x8d\xc0"
p4558
tp4559
bsS'HR'
p4560
g2
(g3
(I0
tp4561
g5
tp4562
Rp4563
(I1
(I2
tp4564
g12
I00
S'33sAff4B'
p4565
tp4566
bsVAIRTRICITY LTD
p4567
g2
(g3
(I0
tp4568
g5
tp4569
Rp4570
(I1
(I2
tp4571
g12
I00
S'\xdfS\x1c\xc2\x15\xfc\xd6\xc1'
p4572
tp4573
bsVFUJIAN ELECTRIC POWER CORP
p4574
g2
(g3
(I0
tp4575
g5
tp4576
Rp4577
(I1
(I2
tp4578
g12
I00
S'\x1f\xfc6B\xb2\x00\x18C'
p4579
tp4580
bsS'HT'
p4581
g2
(g3
(I0
tp4582
g5
tp4583
Rp4584
(I1
(I2
tp4585
g12
I00
S'\x08\x92\x90\xc2\xfe\xc4\x97A'
p4586
tp4587
bsS'HU'
p4588
g2
(g3
(I0
tp4589
g5
tp4590
Rp4591
(I1
(I2
tp4592
g12
I00
S'\xc4\x06\x9cAe\xa6<B'
p4593
tp4594
bsVVIETNAM COAL CORP
p4595
g2
(g3
(I0
tp4596
g5
tp4597
Rp4598
(I1
(I2
tp4599
g12
I00
S'\x85\xf1WC!\xe4\x08\xc3'
p4600
tp4601
bsVDAMODAR VALLEY CORP
p4602
g2
(g3
(I0
tp4603
g5
tp4604
Rp4605
(I1
(I2
tp4606
g12
I00
S'0\xe2\x17C\xa9\xc6`A'
p4607
tp4608
bsVCHURCHILL FALLS (LABRADOR)
p4609
g2
(g3
(I0
tp4610
g5
tp4611
Rp4612
(I1
(I2
tp4613
g12
I00
S"'7H\xc37\xa9\xfaB"
p4614
tp4615
bsVGUANGDONG NUCLEAR POWER CO LTD
p4616
g2
(g3
(I0
tp4617
g5
tp4618
Rp4619
(I1
(I2
tp4620
g12
I00
S')\xf3\x16B6"\nC'
p4621
tp4622
bsVFORTUM POWER & HEAT
p4623
g2
(g3
(I0
tp4624
g5
tp4625
Rp4626
(I1
(I2
tp4627
g12
I00
S'\xea!\x13\xbf\x0b\xbd\x80C'
p4628
tp4629
bsS'CR'
p4630
g2
(g3
(I0
tp4631
g5
tp4632
Rp4633
(I1
(I2
tp4634
g12
I00
S'\xc1\x81\xa7\xc2\x90\xfb\x1bA'
p4635
tp4636
bsVNB POWER GENERATION CORP
p4637
g2
(g3
(I0
tp4638
g5
tp4639
Rp4640
(I1
(I2
tp4641
g12
I00
S'(lm\xc3\x81_\xfbB'
p4642
tp4643
bsVTEOLLISUUDEN VOIMA OY (TVO)
p4644
g2
(g3
(I0
tp4645
g5
tp4646
Rp4647
(I1
(I2
tp4648
g12
I00
S'\x8fs,\xc1\xf1z\x82C'
p4649
tp4650
bsVUPPER EGYPT ELEC PRODUCTION CO
p4651
g2
(g3
(I0
tp4652
g5
tp4653
Rp4654
(I1
(I2
tp4655
g12
I00
S'L\xe1\xbfB^\xfe$\xc3'
p4656
tp4657
bsVKHABAROVSKENERGO
p4658
g2
(g3
(I0
tp4659
g5
tp4660
Rp4661
(I1
(I2
tp4662
g12
I00
S'B\xee\x8fC\xeb\xb0\x8f@'
p4663
tp4664
bsVTNB HIDRO SDN BHD
p4665
g2
(g3
(I0
tp4666
g5
tp4667
Rp4668
(I1
(I2
tp4669
g12
I00
S'\x9dneC\xa4\xaa\xf1B'
p4670
tp4671
bsVUTTAR PRADESH RAJYA VIDYUT
p4672
g2
(g3
(I0
tp4673
g5
tp4674
Rp4675
(I1
(I2
tp4676
g12
I00
S'\x82\x15\x1fC\x11\xf4/A'
p4677
tp4678
bsVDYNEGY NORTHEAST GENERATION
p4679
g2
(g3
(I0
tp4680
g5
tp4681
Rp4682
(I1
(I2
tp4683
g12
I00
S'H\x9dA\xc3\xe6R B'
p4684
tp4685
bsVJP ELEKTROPRIVREDA BIH
p4686
g2
(g3
(I0
tp4687
g5
tp4688
Rp4689
(I1
(I2
tp4690
g12
I00
S'\xef\xbd&C\x9e^4C'
p4691
tp4692
bsVMATRA KRAFTWERK AG
p4693
g2
(g3
(I0
tp4694
g5
tp4695
Rp4696
(I1
(I2
tp4697
g12
I00
S'\xe9\x8d\xa8Bc\x14\x05\xc3'
p4698
tp4699
bsVELEC GEN AUTH THAILAND (EGAT)
p4700
g2
(g3
(I0
tp4701
g5
tp4702
Rp4703
(I1
(I2
tp4704
g12
I00
S'\x13YeC\x1f\x95\xbc\xc2'
p4705
tp4706
bsVLUCHEGORSK FUEL ENERGY (LUTEK)
p4707
g2
(g3
(I0
tp4708
g5
tp4709
Rp4710
(I1
(I2
tp4711
g12
I00
S'c\xdd\x91C\n=`\xc0'
p4712
tp4713
bsVGUANGDONG YUEDIAN GROUP CO
p4714
g2
(g3
(I0
tp4715
g5
tp4716
Rp4717
(I1
(I2
tp4718
g12
I00
S'\x05\x8e\xa0B\xad\xf5\x07C'
p4719
tp4720
bsVDATANG INTL POWER GEN CO
p4721
g2
(g3
(I0
tp4722
g5
tp4723
Rp4724
(I1
(I2
tp4725
g12
I00
S'\xb0\x12GBH\xc5\x05C'
p4726
tp4727
bsVLOY YANG POWER MANAGEMENT
p4728
g2
(g3
(I0
tp4729
g5
tp4730
Rp4731
(I1
(I2
tp4732
g12
I00
S'}&\xea\xc1\xdb"\xc3\xc2'
p4733
tp4734
bsVCHUGOKU ELECTRIC POWER CO
p4735
g2
(g3
(I0
tp4736
g5
tp4737
Rp4738
(I1
(I2
tp4739
g12
I00
S'\x0c\xf1\x87C\x8b\xb8JB'
p4740
tp4741
bsVGULF POWER CO
p4742
g2
(g3
(I0
tp4743
g5
tp4744
Rp4745
(I1
(I2
tp4746
g12
I00
S'\x01\xa0N\xc3\x8b\xb3^B'
p4747
tp4748
bsVSORGENIA SPA
p4749
g2
(g3
(I0
tp4750
g5
tp4751
Rp4752
(I1
(I2
tp4753
g12
I00
S'\xafP\xaeA\x98|\xd0\xc2'
p4754
tp4755
bsVCIA HIDRO DO SAO FRANCISCO
p4756
g2
(g3
(I0
tp4757
g5
tp4758
Rp4759
(I1
(I2
tp4760
g12
I00
S'\x91Tf\xc2\x1e\xf1LA'
p4761
tp4762
bsVOMAHA PUBLIC POWER DIST
p4763
g2
(g3
(I0
tp4764
g5
tp4765
Rp4766
(I1
(I2
tp4767
g12
I00
S'\x8d">\xc3\x94\x83aB'
p4768
tp4769
bsVTURKIYE ATOM ENERJISI KURUMU
p4770
g2
(g3
(I0
tp4771
g5
tp4772
Rp4773
(I1
(I2
tp4774
g12
I00
S'\xa6\xfdr\xc2<i\x18C'
p4775
tp4776
bsVAES TIETE SA
p4777
g2
(g3
(I0
tp4778
g5
tp4779
Rp4780
(I1
(I2
tp4781
g12
I00
S'6\xad\x8e\xc2\xeci\xe1A'
p4782
tp4783
bsVAMERGEN ENERGY CO LLC
p4784
g2
(g3
(I0
tp4785
g5
tp4786
Rp4787
(I1
(I2
tp4788
g12
I00
S'!X;\xc3\xba\x16\x95B'
p4789
tp4790
bsVSHANDONG ELECTRIC POWER CORP
p4791
g2
(g3
(I0
tp4792
g5
tp4793
Rp4794
(I1
(I2
tp4795
g12
I00
S'(\x806B\xed@\x08C'
p4796
tp4797
bsVPSEG NUCLEAR LLC
p4798
g2
(g3
(I0
tp4799
g5
tp4800
Rp4801
(I1
(I2
tp4802
g12
I00
S'\xc1.6\xc3L\xa8%B'
p4803
tp4804
bsVEMGESA SA ESP
p4805
g2
(g3
(I0
tp4806
g5
tp4807
Rp4808
(I1
(I2
tp4809
g12
I00
S'\x0b\x05Q\xc3\x06\x8e\xe6\xc2'
p4810
tp4811
bsVTUAS POWER LTD
p4812
g2
(g3
(I0
tp4813
g5
tp4814
Rp4815
(I1
(I2
tp4816
g12
I00
S'\xd2\xf1NB0\xe7\x04\xc3'
p4817
tp4818
bsVGLOBAL 3 ENERGIA SPCA
p4819
g2
(g3
(I0
tp4820
g5
tp4821
Rp4822
(I1
(I2
tp4823
g12
I00
S'\xb3M\x99\xc2z=\xa9\xc2'
p4824
tp4825
bsVCHINA HUADIAN GROUP CORP
p4826
g2
(g3
(I0
tp4827
g5
tp4828
Rp4829
(I1
(I2
tp4830
g12
I00
S'x\x94WB-\x9d\x04C'
p4831
tp4832
bsVEVER POWER IPP CO LTD
p4833
g2
(g3
(I0
tp4834
g5
tp4835
Rp4836
(I1
(I2
tp4837
g12
I00
S'\x07\xd2\x95C\xd9\xe3\x9e\xc2'
p4838
tp4839
bsS'UZ'
p4840
g2
(g3
(I0
tp4841
g5
tp4842
Rp4843
(I1
(I2
tp4844
g12
I00
S'\xa7+\x81B\x8d\x82%B'
p4845
tp4846
bsS'US'
p4847
g2
(g3
(I0
tp4848
g5
tp4849
Rp4850
(I1
(I2
tp4851
g12
I00
S'\x00m\xbf\xc2h\\\x14B'
p4852
tp4853
bsVNORTHWEST CHINA ELECTRIC POWER
p4854
g2
(g3
(I0
tp4855
g5
tp4856
Rp4857
(I1
(I2
tp4858
g12
I00
S'\x08[8BP\xe5\rC'
p4859
tp4860
bsVAEM SPA
p4861
g2
(g3
(I0
tp4862
g5
tp4863
Rp4864
(I1
(I2
tp4865
g12
I00
S"^'\xeeA\xaf\xbf\xdf\xc2"
p4866
tp4867
bsVCONECTIV ENERGY
p4868
g2
(g3
(I0
tp4869
g5
tp4870
Rp4871
(I1
(I2
tp4872
g12
I00
S'\xcb\x9b)\xc3\x8a(<B'
p4873
tp4874
bsVCEYLON ELECTRICITY BOARD
p4875
g2
(g3
(I0
tp4876
g5
tp4877
Rp4878
(I1
(I2
tp4879
g12
I00
S'\xe3\xc0\x85CAr\xaaB'
p4880
tp4881
bsS'UA'
p4882
g2
(g3
(I0
tp4883
g5
tp4884
Rp4885
(I1
(I2
tp4886
g12
I00
S'\x1cS\xf9A\x8a\x84AB'
p4887
tp4888
bsS'AT'
p4889
g2
(g3
(I0
tp4890
g5
tp4891
Rp4892
(I1
(I2
tp4893
g12
I00
S'\x18\xcdhA\x9f\x10>B'
p4894
tp4895
bsVE-CO VANNKRAFT AS
p4896
g2
(g3
(I0
tp4897
g5
tp4898
Rp4899
(I1
(I2
tp4900
g12
I00
S'\x04\xfdh\xc3J\x8f\x9cB'
p4901
tp4902
bsVIGNALINOS ATOMINE ELEKTRINE VI
p4903
g2
(g3
(I0
tp4904
g5
tp4905
Rp4906
(I1
(I2
tp4907
g12
I00
S'\x15U\xa4\xc2\xd4m<C'
p4908
tp4909
bsVCJSC EKIBASTUZ ENERGOTSENTR
p4910
g2
(g3
(I0
tp4911
g5
tp4912
Rp4913
(I1
(I2
tp4914
g12
I00
S'u?xCf\xa1VB'
p4915
tp4916
bsVSAKENERGOGENERATSIA
p4917
g2
(g3
(I0
tp4918
g5
tp4919
Rp4920
(I1
(I2
tp4921
g12
I00
S'\xea\xadGCje.C'
p4922
tp4923
bsVPT PLN PERSERO
p4924
g2
(g3
(I0
tp4925
g5
tp4926
Rp4927
(I1
(I2
tp4928
g12
I00
S'\xf3\xb5\x84B\xaaoy\xc2'
p4929
tp4930
bsVPAKSI ATOMEROMU RT
p4931
g2
(g3
(I0
tp4932
g5
tp4933
Rp4934
(I1
(I2
tp4935
g12
I00
S'\xa8\xca\x8cB\xf9F\x02\xc3'
p4936
tp4937
bsVDEVLET SU ISLERI (DSI)
p4938
g2
(g3
(I0
tp4939
g5
tp4940
Rp4941
(I1
(I2
tp4942
g12
I00
S'X2F\xc2\x81\x9f\x1eC'
p4943
tp4944
bsVHOKKAIDO ELECTRIC POWER CO INC
p4945
g2
(g3
(I0
tp4946
g5
tp4947
Rp4948
(I1
(I2
tp4949
g12
I00
S'\xb8\x14\x8dC\x9aj&B'
p4950
tp4951
bsVSLOVENSKE ELEKTRARNE AS (SE)
p4952
g2
(g3
(I0
tp4953
g5
tp4954
Rp4955
(I1
(I2
tp4956
g12
I00
S'\x04\xb6\x18C\xe3\xfa;C'
p4957
tp4958
bsVNOVOSIBIRSKENERGO
p4959
g2
(g3
(I0
tp4960
g5
tp4961
Rp4962
(I1
(I2
tp4963
g12
I00
S'\xba\xfc\x8cC\x93\xbdE\xc0'
p4964
tp4965
bsVBOSTON GENERATING LLC
p4966
g2
(g3
(I0
tp4967
g5
tp4968
Rp4969
(I1
(I2
tp4970
g12
I00
S'\xdb\xbb3\xc3\xdel\xb8B'
p4971
tp4972
bsVDAYTON POWER & LIGHT CO (OH)
p4973
g2
(g3
(I0
tp4974
g5
tp4975
Rp4976
(I1
(I2
tp4977
g12
I00
S'c\xa1)\xc3\xeeY,B'
p4978
tp4979
bsS'KR'
p4980
g2
(g3
(I0
tp4981
g5
tp4982
Rp4983
(I1
(I2
tp4984
g12
I00
S'\xaa\x88\xffB\x8b\xa1\x0fB'
p4985
tp4986
bsS'NI'
p4987
g2
(g3
(I0
tp4988
g5
tp4989
Rp4990
(I1
(I2
tp4991
g12
I00
S'\x1aj\xaa\xc2\xbe\xd8MA'
p4992
tp4993
bsVUTTARANCHAL JAL VIDYUT NIGAM
p4994
g2
(g3
(I0
tp4995
g5
tp4996
Rp4997
(I1
(I2
tp4998
g12
I00
S'\x1f\xda!CPm\xa2\xc0'
p4999
tp5000
bsS'NL'
p5001
g2
(g3
(I0
tp5002
g5
tp5003
Rp5004
(I1
(I2
tp5005
g12
I00
S'\rR\xa9@\xd1\x87PB'
p5006
tp5007
bsS'NO'
p5008
g2
(g3
(I0
tp5009
g5
tp5010
Rp5011
(I1
(I2
tp5012
g12
I00
S'\xce\x80\x07AZ\xe3qB'
p5013
tp5014
bsVELECTROPERU SA
p5015
g2
(g3
(I0
tp5016
g5
tp5017
Rp5018
(I1
(I2
tp5019
g12
I00
S'\xc7\xa9.\xc3KG\x1a\xc3'
p5020
tp5021
bsS'NG'
p5022
g2
(g3
(I0
tp5023
g5
tp5024
Rp5025
(I1
(I2
tp5026
g12
I00
S'\xef\xcd\nA\xdeO\x11A'
p5027
tp5028
bsS'NZ'
p5029
g2
(g3
(I0
tp5030
g5
tp5031
Rp5032
(I1
(I2
tp5033
g12
I00
S'\xcf\xe2.C,\x9a#\xc2'
p5034
tp5035
bsVPUERTO RICO ELEC PWR AUTH
p5036
g2
(g3
(I0
tp5037
g5
tp5038
Rp5039
(I1
(I2
tp5040
g12
I00
S'\x1b\xcd5\xc3y\xd05B'
p5041
tp5042
bsVSCOTTISH AND SOUTHERN ENERGY
p5043
g2
(g3
(I0
tp5044
g5
tp5045
Rp5046
(I1
(I2
tp5047
g12
I00
S'\xc7\\{\xc1U\x8b\x15\xc2'
p5048
tp5049
bsVVERVE ENERGY
p5050
g2
(g3
(I0
tp5051
g5
tp5052
Rp5053
(I1
(I2
tp5054
g12
I00
S'\xd1\x86\xc7\xc1\xb1\xf3\xa7\xc2'
p5055
tp5056
bsS'NP'
p5057
g2
(g3
(I0
tp5058
g5
tp5059
Rp5060
(I1
(I2
tp5061
g12
I00
S'~?\xa8B\xab(\xe3A'
p5062
tp5063
bsVEXELON NUCLEAR
p5064
g2
(g3
(I0
tp5065
g5
tp5066
Rp5067
(I1
(I2
tp5068
g12
I00
S'\xae\x9e.\xc3\xf2\xc4uB'
p5069
tp5070
bsVJIANGSU NUCLEAR POWER CORP
p5071
g2
(g3
(I0
tp5072
g5
tp5073
Rp5074
(I1
(I2
tp5075
g12
I00
S'=\x05\x03B1\xfb\tC'
p5076
tp5077
bsVHYDRO TASMANIA
p5078
g2
(g3
(I0
tp5079
g5
tp5080
Rp5081
(I1
(I2
tp5082
g12
I00
S'\xec\xc1\xb9\xc1Il\xb5\xc2'
p5083
tp5084
bsVSTADTWERKE MUNCHEN GMBH
p5085
g2
(g3
(I0
tp5086
g5
tp5087
Rp5088
(I1
(I2
tp5089
g12
I00
S'\xe0\xb1\xe3\xc2\xb3\xe5\x81\xc2'
p5090
tp5091
bsVINTERSTATE POWER AND LIGHT CO
p5092
g2
(g3
(I0
tp5093
g5
tp5094
Rp5095
(I1
(I2
tp5096
g12
I00
S':\x01?\xc3\x1c9DB'
p5097
tp5098
bsVBASHKIRENERGO
p5099
g2
(g3
(I0
tp5100
g5
tp5101
Rp5102
(I1
(I2
tp5103
g12
I00
S'\x7ff\x8cC\xa9\x0c\xd4@'
p5104
tp5105
bsVCS ENERGY CORP LTD
p5106
g2
(g3
(I0
tp5107
g5
tp5108
Rp5109
(I1
(I2
tp5110
g12
I00
S'\xe9\xd7\x11\xc1\x8ah\xd1\xc2'
p5111
tp5112
bsVHYDRO PLANTS ELEC PROD CO
p5113
g2
(g3
(I0
tp5114
g5
tp5115
Rp5116
(I1
(I2
tp5117
g12
I00
S'\\\xb4\x88B\xa6\xb4-\xc3'
p5118
tp5119
bsVENIPOWER
p5120
g2
(g3
(I0
tp5121
g5
tp5122
Rp5123
(I1
(I2
tp5124
g12
I00
S'\x1f\xbc1B\x83|\xb8\xc2'
p5125
tp5126
bsVOGK-6 (SIXTH GENERATION CO)
p5127
g2
(g3
(I0
tp5128
g5
tp5129
Rp5130
(I1
(I2
tp5131
g12
I00
S'\xcf\xc6\x83C\xa5\xf5\x05\xc1'
p5132
tp5133
bsVMARAFIQ
p5134
g2
(g3
(I0
tp5135
g5
tp5136
Rp5137
(I1
(I2
tp5138
g12
I00
S'\xf2AuA\x0f\xceOC'
p5139
tp5140
bsVGAS NATURAL SDG SA
p5141
g2
(g3
(I0
tp5142
g5
tp5143
Rp5144
(I1
(I2
tp5145
g12
I00
S'\x0foL\xc2l\x9c\x80\xc2'
p5146
tp5147
bsVGVK INDUSTRIES LTD
p5148
g2
(g3
(I0
tp5149
g5
tp5150
Rp5151
(I1
(I2
tp5152
g12
I00
S'\xfd}+C\x13\x00HB'
p5153
tp5154
bsVWISCONSIN POWER & LIGHT CO
p5155
g2
(g3
(I0
tp5156
g5
tp5157
Rp5158
(I1
(I2
tp5159
g12
I00
S'g\xc6K\xc3\xde\xc1\x8aB'
p5160
tp5161
bsS'KW'
p5162
g2
(g3
(I0
tp5163
g5
tp5164
Rp5165
(I1
(I2
tp5166
g12
I00
S'T\xed=BH~\xeaA'
p5167
tp5168
bsVTILAIYA UMPP
p5169
g2
(g3
(I0
tp5170
g5
tp5171
Rp5172
(I1
(I2
tp5173
g12
I00
S' ;%CD\xb8(B'
p5174
tp5175
bsVWISCONSIN PUBLIC SERVICE CORP
p5176
g2
(g3
(I0
tp5177
g5
tp5178
Rp5179
(I1
(I2
tp5180
g12
I00
S"n'>\xc3'\x1a\xb7B"
p5181
tp5182
bsVDYNEGY WEST GENERATION
p5183
g2
(g3
(I0
tp5184
g5
tp5185
Rp5186
(I1
(I2
tp5187
g12
I00
S'\x9e\xaf)\xc3iy_B'
p5188
tp5189
bsVFPC HUAYANG ZHANGZHOU POWER
p5190
g2
(g3
(I0
tp5191
g5
tp5192
Rp5193
(I1
(I2
tp5194
g12
I00
S'r\x04\xf5A\r2\x10C'
p5195
tp5196
bsVSOUTHWESTERN ELEC POWER CO
p5197
g2
(g3
(I0
tp5198
g5
tp5199
Rp5200
(I1
(I2
tp5201
g12
I00
S'\xe6\xbc3\xc3\x10\x04HB'
p5202
tp5203
bsVKOREA SOUTHERN POWER (KOSPO)
p5204
g2
(g3
(I0
tp5205
g5
tp5206
Rp5207
(I1
(I2
tp5208
g12
I00
S'q\xb5qC\xa6\xe7\x1fC'
p5209
tp5210
bsS'CH'
p5211
g2
(g3
(I0
tp5212
g5
tp5213
Rp5214
(I1
(I2
tp5215
g12
I00
S'\xe4\xa3\x03A\xd3E;B'
p5216
tp5217
bsVCOMPETITIVE POWER VENTURES INC
p5218
g2
(g3
(I0
tp5219
g5
tp5220
Rp5221
(I1
(I2
tp5222
g12
I00
S'R\xfc>\xc3\x19w\xa3B'
p5223
tp5224
bsVKARNATAKA POWER CORP LTD
p5225
g2
(g3
(I0
tp5226
g5
tp5227
Rp5228
(I1
(I2
tp5229
g12
I00
S'C\x84\x1bC\xb8$\xa8A'
p5230
tp5231
bsVMAZANDARAN REGIONAL ELEC POWER
p5232
g2
(g3
(I0
tp5233
g5
tp5234
Rp5235
(I1
(I2
tp5236
g12
I00
S'\x8d\x07\xa5BO|zC'
p5237
tp5238
bsVNING LONG POWER GENERATING CO
p5239
g2
(g3
(I0
tp5240
g5
tp5241
Rp5242
(I1
(I2
tp5243
g12
I00
S'\xa1J/B\x1dH"C'
p5244
tp5245
bsVTECHNICAL UNIT HYDRO (UTIP)
p5246
g2
(g3
(I0
tp5247
g5
tp5248
Rp5249
(I1
(I2
tp5250
g12
I00
S'\xeeS1B\xd8\xe8\\\xc3'
p5251
tp5252
bsS'CN'
p5253
g2
(g3
(I0
tp5254
g5
tp5255
Rp5256
(I1
(I2
tp5257
g12
I00
S'\x0bd\xd0BWr\x0fB'
p5258
tp5259
bsVCHEUNG KONG INFRASTRUCTURE
p5260
g2
(g3
(I0
tp5261
g5
tp5262
Rp5263
(I1
(I2
tp5264
g12
I00
S'mW_B!+\x13C'
p5265
tp5266
bsS'TW'
p5267
g2
(g3
(I0
tp5268
g5
tp5269
Rp5270
(I1
(I2
tp5271
g12
I00
S'\xc9\xeb\xf1B\x1d\x95\xbdA'
p5272
tp5273
bsVDOW CHEMICAL CO
p5274
g2
(g3
(I0
tp5275
g5
tp5276
Rp5277
(I1
(I2
tp5278
g12
I00
S'\x810F\xc3\xdb]GB'
p5279
tp5280
bsS'TR'
p5281
g2
(g3
(I0
tp5282
g5
tp5283
Rp5284
(I1
(I2
tp5285
g12
I00
S')\xf9\x0cB\xe0\xda\x1bB'
p5286
tp5287
bsS'TN'
p5288
g2
(g3
(I0
tp5289
g5
tp5290
Rp5291
(I1
(I2
tp5292
g12
I00
S'\x99\x99\x18A4\x8c\x07B'
p5293
tp5294
bsVE.ON ENERGIE AG
p5295
g2
(g3
(I0
tp5296
g5
tp5297
Rp5298
(I1
(I2
tp5299
g12
I00
S'\x17\x13\xb6\xc2-\xe3\x1f\xc2'
p5300
tp5301
bsS'TM'
p5302
g2
(g3
(I0
tp5303
g5
tp5304
Rp5305
(I1
(I2
tp5306
g12
I00
S'\xa19nB\xfe\xe0\x1bB'
p5307
tp5308
bsS'TJ'
p5309
g2
(g3
(I0
tp5310
g5
tp5311
Rp5312
(I1
(I2
tp5313
g12
I00
S'\\\x8d\x8eB\xb3q\x1bB'
p5314
tp5315
bsS'TH'
p5316
g2
(g3
(I0
tp5317
g5
tp5318
Rp5319
(I1
(I2
tp5320
g12
I00
S'.\xfc\xc9B\xa7\xeb}A'
p5321
tp5322
bsVPPL GENERATION LLC
p5323
g2
(g3
(I0
tp5324
g5
tp5325
Rp5326
(I1
(I2
tp5327
g12
I00
S'\xd9\x941\xc3\x89\x96iB'
p5328
tp5329
bsVLOWER COLORADO RIVER AUTH
p5330
g2
(g3
(I0
tp5331
g5
tp5332
Rp5333
(I1
(I2
tp5334
g12
I00
S'\xdb\xfaH\xc3\xff\xc4mB'
p5335
tp5336
bsS'AE'
p5337
g2
(g3
(I0
tp5338
g5
tp5339
Rp5340
(I1
(I2
tp5341
g12
I00
S'*dWB\x82d\xbbA'
p5342
tp5343
bsVNRG ENERGY INC
p5344
g2
(g3
(I0
tp5345
g5
tp5346
Rp5347
(I1
(I2
tp5348
g12
I00
S'ei.\xc3\x82\x8a\x82B'
p5349
tp5350
bsVKOREA SOUTHEAST POWER CO
p5351
g2
(g3
(I0
tp5352
g5
tp5353
Rp5354
(I1
(I2
tp5355
g12
I00
S'l\x0eyC\xb7G\x19C'
p5356
tp5357
bsS'AL'
p5358
g2
(g3
(I0
tp5359
g5
tp5360
Rp5361
(I1
(I2
tp5362
g12
I00
S'\xbeX\xa1A\x03\x9d$B'
p5363
tp5364
bsVSHARJAH ELEC & WATER AUTH
p5365
g2
(g3
(I0
tp5366
g5
tp5367
Rp5368
(I1
(I2
tp5369
g12
I00
S's\xb1\xb5BiH-\xc3'
p5370
tp5371
bsS'AR'
p5372
g2
(g3
(I0
tp5373
g5
tp5374
Rp5375
(I1
(I2
tp5376
g12
I00
S'yw~\xc2\x15\xaa\x19\xc2'
p5377
tp5378
bsS'AU'
p5379
g2
(g3
(I0
tp5380
g5
tp5381
Rp5382
(I1
(I2
tp5383
g12
I00
S'o\xc6\x05C\xf81\xca\xc1'
p5384
tp5385
bsS'LV'
p5386
g2
(g3
(I0
tp5387
g5
tp5388
Rp5389
(I1
(I2
tp5390
g12
I00
S'U\xd3\xc4A\xbf\x84cB'
p5391
tp5392
bsVDONG ENERGY A/S
p5393
g2
(g3
(I0
tp5394
g5
tp5395
Rp5396
(I1
(I2
tp5397
g12
I00
S'\xe7\xf0\xd7Bx 5C'
p5398
tp5399
bsS'AZ'
p5400
g2
(g3
(I0
tp5401
g5
tp5402
Rp5403
(I1
(I2
tp5404
g12
I00
S'\xc6N>B\x8a\x92 B'
p5405
tp5406
bsVFLORIDA POWER & LIGHT CO
p5407
g2
(g3
(I0
tp5408
g5
tp5409
Rp5410
(I1
(I2
tp5411
g12
I00
S'\xee\x90*\xc3\x81\xe0rB'
p5412
tp5413
bsVMIGHTY RIVER POWER CO LTD
p5414
g2
(g3
(I0
tp5415
g5
tp5416
Rp5417
(I1
(I2
tp5418
g12
I00
S'\xf9{\x9eCp \x1d\xc3'
p5419
tp5420
bsVSALT RIVER PROJECT
p5421
g2
(g3
(I0
tp5422
g5
tp5423
Rp5424
(I1
(I2
tp5425
g12
I00
S'\xd9\xb0/\xc3S\xcaHB'
p5426
tp5427
bsVLOS ANGELES DEPT WTR & PWR
p5428
g2
(g3
(I0
tp5429
g5
tp5430
Rp5431
(I1
(I2
tp5432
g12
I00
S'\xbd;*\xc3\xc2\x19LB'
p5433
tp5434
bsVPSEG FOSSIL LLC
p5435
g2
(g3
(I0
tp5436
g5
tp5437
Rp5438
(I1
(I2
tp5439
g12
I00
S'\xd4W-\xc3\x98\xd5eB'
p5440
tp5441
bsVORISSA HYDRO POWER CORP (OHPC)
p5442
g2
(g3
(I0
tp5443
g5
tp5444
Rp5445
(I1
(I2
tp5446
g12
I00
S't\xb22C\x03@\xfaA'
p5447
tp5448
bsVFEDERAL ELEC & WATER AUTH
p5449
g2
(g3
(I0
tp5450
g5
tp5451
Rp5452
(I1
(I2
tp5453
g12
I00
S'\x90)\xf3B\xbb\xca!\xc3'
p5454
tp5455
bsVERARING ENERGY
p5456
g2
(g3
(I0
tp5457
g5
tp5458
Rp5459
(I1
(I2
tp5460
g12
I00
S'\xa4\x90\x8d\xc1\xc0V\xa0\xc2'
p5461
tp5462
bsVEDC - ELEC DE CARACAS
p5463
g2
(g3
(I0
tp5464
g5
tp5465
Rp5466
(I1
(I2
tp5467
g12
I00
S"\x9e\x1e?\xc3'\xfd\x14\xc3"
p5468
tp5469
bsVESKOM
p5470
g2
(g3
(I0
tp5471
g5
tp5472
Rp5473
(I1
(I2
tp5474
g12
I00
S'S\xf1\xc6A!\xb1I\xc3'
p5475
tp5476
bsVVISA POWER LTD
p5477
g2
(g3
(I0
tp5478
g5
tp5479
Rp5480
(I1
(I2
tp5481
g12
I00
S'\x8f\xc59C\xca\x17\rB'
p5482
tp5483
bsVGENPOWER LLC
p5484
g2
(g3
(I0
tp5485
g5
tp5486
Rp5487
(I1
(I2
tp5488
g12
I00
S'\xe5WK\xc3$WzB'
p5489
tp5490
bs.