(dp0
VNATIONAL HYDRO POWER CORP
p1
cnumpy.core.multiarray
_reconstruct
p2
(cnumpy
ndarray
p3
(I0
tp4
S'b'
p5
tp6
Rp7
(I1
(I2
tp8
cnumpy
dtype
p9
(S'f4'
p10
I0
I1
tp11
Rp12
(I3
S'<'
p13
NNNI-1
I-1
I0
tp14
bI00
S"'\xbcLC\xf4:fB"
p15
tp16
bsVATCO POWER LTD
p17
g2
(g3
(I0
tp18
g5
tp19
Rp20
(I1
(I2
tp21
g12
I00
S"'\xd2j\xc3y\xba\xd7B"
p22
tp23
bsVINST COSTARRICENSE ELEC (ICE)
p24
g2
(g3
(I0
tp25
g5
tp26
Rp27
(I1
(I2
tp28
g12
I00
S'\xd1\xcd4\xc3s\xfb\x0f\xc3'
p29
tp30
bsVNO INDIANA PUBLIC SERVICE
p31
g2
(g3
(I0
tp32
g5
tp33
Rp34
(I1
(I2
tp35
g12
I00
S'\xa59J\xc3Y\xcc,\xc0'
p36
tp37
bsVSOUTH CHINA UNITED POWER CO
p38
g2
(g3
(I0
tp39
g5
tp40
Rp41
(I1
(I2
tp42
g12
I00
S'\xc1\xe4\xb7B\xb1a\rC'
p43
tp44
bsVSTATE POWER CENTRAL CO
p45
g2
(g3
(I0
tp46
g5
tp47
Rp48
(I1
(I2
tp49
g12
I00
S'v\xdf\xbeBz6\x04C'
p50
tp51
bsVCIA PARANAENSE DE ENERGIA ELET
p52
g2
(g3
(I0
tp53
g5
tp54
Rp55
(I1
(I2
tp56
g12
I00
S'\x95\xa7\xcb\xc2<G\xc0B'
p57
tp58
bsVJIANGSU ELECTRIC POWER CORP
p59
g2
(g3
(I0
tp60
g5
tp61
Rp62
(I1
(I2
tp63
g12
I00
S'\x17\xa0\xb3B\x15\xe5\xfbB'
p64
tp65
bsVKANSAI ELECTRIC POWER CO
p66
g2
(g3
(I0
tp67
g5
tp68
Rp69
(I1
(I2
tp70
g12
I00
S'F\x15{C4\xca\x85\xc2'
p71
tp72
bsVNATIONAL POWER CORP (NPC)
p73
g2
(g3
(I0
tp74
g5
tp75
Rp76
(I1
(I2
tp77
g12
I00
S'\x8b^\xe2B\xfe\xa7LC'
p78
tp79
bsVBELENERGO
p80
g2
(g3
(I0
tp81
g5
tp82
Rp83
(I1
(I2
tp84
g12
I00
S'\x11gMCe\x8c\x03C'
p85
tp86
bsVPSEG NUCLEAR
p87
g2
(g3
(I0
tp88
g5
tp89
Rp90
(I1
(I2
tp91
g12
I00
S's\xbfL\xc3\xc0\x8b\xbc?'
p92
tp93
bsVKENTUCKY UTILITIES
p94
g2
(g3
(I0
tp95
g5
tp96
Rp97
(I1
(I2
tp98
g12
I00
S'(\xacL\xc3\xfc\x7f\xc5A'
p99
tp100
bsVNEPAL MINISTRY WTR RESOURCES
p101
g2
(g3
(I0
tp102
g5
tp103
Rp104
(I1
(I2
tp105
g12
I00
S'\xcfa\x83C!aFA'
p106
tp107
bsVKUZBASSENERGO
p108
g2
(g3
(I0
tp109
g5
tp110
Rp111
(I1
(I2
tp112
g12
I00
S'*5}C\x02\xc5\xd9@'
p113
tp114
bsS'GR'
p115
g2
(g3
(I0
tp116
g5
tp117
Rp118
(I1
(I2
tp119
g12
I00
S'1\x98\xaeA\xfdK\x1cB'
p120
tp121
bsVXINJIANG ELECTRIC POWER CO
p122
g2
(g3
(I0
tp123
g5
tp124
Rp125
(I1
(I2
tp126
g12
I00
S'\x841\xbeB:\xd6\x17C'
p127
tp128
bsVWEST DELTA ELEC PRODUCTION CO
p129
g2
(g3
(I0
tp130
g5
tp131
Rp132
(I1
(I2
tp133
g12
I00
S"B\xfe\x15C'\r\xd5\xc2"
p134
tp135
bsS'GE'
p136
g2
(g3
(I0
tp137
g5
tp138
Rp139
(I1
(I2
tp140
g12
I00
S'um-B\xfaB)B'
p141
tp142
bsVDUBAI ELEC & WATER AUTH (DEWA)
p143
g2
(g3
(I0
tp144
g5
tp145
Rp146
(I1
(I2
tp147
g12
I00
S'0\x13\x00C\x0c\xae\x0c\xc3'
p148
tp149
bsVPT INDONESIA POWER
p150
g2
(g3
(I0
tp151
g5
tp152
Rp153
(I1
(I2
tp154
g12
I00
S'\xdd\xc6\x18C[\xb0~\xc1'
p155
tp156
bsVGUANGXI ELECTRIC POWER CORP
p157
g2
(g3
(I0
tp158
g5
tp159
Rp160
(I1
(I2
tp161
g12
I00
S'U)QBT\x19\tC'
p162
tp163
bsVBHAKRA BEAS MANAGEMENT BOARD
p164
g2
(g3
(I0
tp165
g5
tp166
Rp167
(I1
(I2
tp168
g12
I00
S'e\xccEC%k\xccB'
p169
tp170
bsVELECTRABEL SA
p171
g2
(g3
(I0
tp172
g5
tp173
Rp174
(I1
(I2
tp175
g12
I00
S'\x10\x90WA\x8a(Z\xc2'
p176
tp177
bsVMAHARASHTRA STATE ELEC BOARD
p178
g2
(g3
(I0
tp179
g5
tp180
Rp181
(I1
(I2
tp182
g12
I00
S'\xda\xaaTC\xbb\xc1\xb2B'
p183
tp184
bsVKOREA EAST-WEST POWER CO
p185
g2
(g3
(I0
tp186
g5
tp187
Rp188
(I1
(I2
tp189
g12
I00
S'\xb2\x845C\xf6\x80"C'
p190
tp191
bsVKERNKRAFTWERKE GUNDREMMINGEN
p192
g2
(g3
(I0
tp193
g5
tp194
Rp195
(I1
(I2
tp196
g12
I00
S'*KH\xc2\xa8\xcc\x9e\xc2'
p197
tp198
bsVNEWFOUNDLAND AND LAB HYDRO
p199
g2
(g3
(I0
tp200
g5
tp201
Rp202
(I1
(I2
tp203
g12
I00
S'@\xf2B\xc3\xb9B\x99B'
p204
tp205
bsVSACRAMENTO MUN UTIL DIST
p206
g2
(g3
(I0
tp207
g5
tp208
Rp209
(I1
(I2
tp210
g12
I00
S'@\xfdP\xc3\xdb)\x8bA'
p211
tp212
bsVENEL SPA
p213
g2
(g3
(I0
tp214
g5
tp215
Rp216
(I1
(I2
tp217
g12
I00
S'\x90\x02dB\xe6\x18}\xc2'
p218
tp219
bsVPERMENERGO
p220
g2
(g3
(I0
tp221
g5
tp222
Rp223
(I1
(I2
tp224
g12
I00
S'\xe5\xb6\x80CJ\xbd\xb9\xc1'
p225
tp226
bsVHUITAOXIA HYDROELECTRIC PROJ
p227
g2
(g3
(I0
tp228
g5
tp229
Rp230
(I1
(I2
tp231
g12
I00
S'\x10\xdc\xadB\x7f}\x1cC'
p232
tp233
bsVWE ENERGIES
p234
g2
(g3
(I0
tp235
g5
tp236
Rp237
(I1
(I2
tp238
g12
I00
S'YJ-\xc3\xb3C\xa8?'
p239
tp240
bsVAMERENUE
p241
g2
(g3
(I0
tp242
g5
tp243
Rp244
(I1
(I2
tp245
g12
I00
S'\xc3#=\xc3\xf2\xb4\xf1A'
p246
tp247
bsVNEVADA POWER CO
p248
g2
(g3
(I0
tp249
g5
tp250
Rp251
(I1
(I2
tp252
g12
I00
S'\x99\x03Q\xc3\xc7PM@'
p253
tp254
bsVGUANGDONG ELEC POWER DEV CO
p255
g2
(g3
(I0
tp256
g5
tp257
Rp258
(I1
(I2
tp259
g12
I00
S'\x85k\xa2B\x98e\x1fC'
p260
tp261
bsVGENTING SANYEN
p262
g2
(g3
(I0
tp263
g5
tp264
Rp265
(I1
(I2
tp266
g12
I00
S'\x874\x12Ck\xb9>C'
p267
tp268
bsVTNB GENERATION SDN BHD
p269
g2
(g3
(I0
tp270
g5
tp271
Rp272
(I1
(I2
tp273
g12
I00
S'5\x8d.C\xe0\x01\x11C'
p274
tp275
bsVSYDKRAFT AB
p276
g2
(g3
(I0
tp277
g5
tp278
Rp279
(I1
(I2
tp280
g12
I00
S'\x87r\x86\xc2bi\x03C'
p281
tp282
bsVFPL ENERGY LLC
p283
g2
(g3
(I0
tp284
g5
tp285
Rp286
(I1
(I2
tp287
g12
I00
S'\xa5\xa7-\xc3\x10\x8a`A'
p288
tp289
bsVOHIO POWER CO
p290
g2
(g3
(I0
tp291
g5
tp292
Rp293
(I1
(I2
tp294
g12
I00
S'\xf1\x03I\xc32\xdc\xbeA'
p295
tp296
bsVNUON NV
p297
g2
(g3
(I0
tp298
g5
tp299
Rp300
(I1
(I2
tp301
g12
I00
S']\xd1$\xc2g\xda*\xc2'
p302
tp303
bsVELECTRICITE DE LIBAN
p304
g2
(g3
(I0
tp305
g5
tp306
Rp307
(I1
(I2
tp308
g12
I00
S'+MCC\x81\xef\tA'
p309
tp310
bsVCEZ AS
p311
g2
(g3
(I0
tp312
g5
tp313
Rp314
(I1
(I2
tp315
g12
I00
S'\x16\x00\xafBhC.\xc2'
p316
tp317
bsVDPRK MINISTRY POWER INDUSTRY
p318
g2
(g3
(I0
tp319
g5
tp320
Rp321
(I1
(I2
tp322
g12
I00
S'8\x81\x87CE\x88\xd6A'
p323
tp324
bsS'ZA'
p325
g2
(g3
(I0
tp326
g5
tp327
Rp328
(I1
(I2
tp329
g12
I00
S'\x03\x80\xb7A\xd2y\xf4\xc1'
p330
tp331
bsVESSENT ENERGIE PRODUCTIE BV
p332
g2
(g3
(I0
tp333
g5
tp334
Rp335
(I1
(I2
tp336
g12
I00
S'Y\xbc\xc2\xc1\xaf\x06d\xc2'
p337
tp338
bsVPUNJAB STATE ELECTRICITY BOARD
p339
g2
(g3
(I0
tp340
g5
tp341
Rp342
(I1
(I2
tp343
g12
I00
S'\xe6riC\xeb\x1e\xa5B'
p344
tp345
bsS'ZW'
p346
g2
(g3
(I0
tp347
g5
tp348
Rp349
(I1
(I2
tp350
g12
I00
S'&=\xe9A\x9e\x1f\x98\xc1'
p351
tp352
bsS'SA'
p353
g2
(g3
(I0
tp354
g5
tp355
Rp356
(I1
(I2
tp357
g12
I00
S'\x10Q4Bi\x16\xbfA'
p358
tp359
bsVNORTHEAST CHINA ELEC POWER
p360
g2
(g3
(I0
tp361
g5
tp362
Rp363
(I1
(I2
tp364
g12
I00
S'\x9f\xa2\xbbB\xf5v\xffB'
p365
tp366
bsS'MD'
p367
g2
(g3
(I0
tp368
g5
tp369
Rp370
(I1
(I2
tp371
g12
I00
S'\x86\xf5\xe2A\x83\xa5=B'
p372
tp373
bsS'MA'
p374
g2
(g3
(I0
tp375
g5
tp376
Rp377
(I1
(I2
tp378
g12
I00
S'\xbe\xf6\xe2\xc0hU\xfeA'
p379
tp380
bsVTRANSALTA ENERGY CORP
p381
g2
(g3
(I0
tp382
g5
tp383
Rp384
(I1
(I2
tp385
g12
I00
S'W\xd6\x12\xc3\x80\xe4\x88A'
p386
tp387
bsS'MM'
p388
g2
(g3
(I0
tp389
g5
tp390
Rp391
(I1
(I2
tp392
g12
I00
S'\x96\xe9\xbfB\xcdO\xafA'
p393
tp394
bsS'MK'
p395
g2
(g3
(I0
tp396
g5
tp397
Rp398
(I1
(I2
tp399
g12
I00
S'S\xf6\xadA>o&B'
p400
tp401
bsVSOUTH CAROLINA ELEC & GAS
p402
g2
(g3
(I0
tp403
g5
tp404
Rp405
(I1
(I2
tp406
g12
I00
S'\xb8\xbd1\xc3\xe6\xe9,\xc1'
p407
tp408
bsVTECO POWER SERVICES CORP
p409
g2
(g3
(I0
tp410
g5
tp411
Rp412
(I1
(I2
tp413
g12
I00
S'Zp7\xc3m\xf0:\xc1'
p414
tp415
bsVSICHUAN ELECTRIC POWER CORP
p416
g2
(g3
(I0
tp417
g5
tp418
Rp419
(I1
(I2
tp420
g12
I00
S'\x95\xa4\xc1B\x9a:\rC'
p421
tp422
bsVCHUVASHENERGO
p423
g2
(g3
(I0
tp424
g5
tp425
Rp426
(I1
(I2
tp427
g12
I00
S'\\\xc4QC\xad2[\xc2'
p428
tp429
bsS'MY'
p430
g2
(g3
(I0
tp431
g5
tp432
Rp433
(I1
(I2
tp434
g12
I00
S'\x98\xf3\xcbBI\xbc\x86@'
p435
tp436
bsVNEW BRUNSWICK POWER GENERATION
p437
g2
(g3
(I0
tp438
g5
tp439
Rp440
(I1
(I2
tp441
g12
I00
S'T\x94C\xc3\xd2\x8d\xb4B'
p442
tp443
bsVSALINE WATER CONVERSION CORP
p444
g2
(g3
(I0
tp445
g5
tp446
Rp447
(I1
(I2
tp448
g12
I00
S'\x16\xf3\xe5\xc2d\xcf^B'
p449
tp450
bsVKOREAN PENINSULA ENERGY DEV
p451
g2
(g3
(I0
tp452
g5
tp453
Rp454
(I1
(I2
tp455
g12
I00
S'\xdci\x0cC\x1a\xef\x97\xc2'
p456
tp457
bsS'FR'
p458
g2
(g3
(I0
tp459
g5
tp460
Rp461
(I1
(I2
tp462
g12
I00
S'\x10\xae\r@\x1a\xe98B'
p463
tp464
bsVCHELYABENERGO
p465
g2
(g3
(I0
tp466
g5
tp467
Rp468
(I1
(I2
tp469
g12
I00
S'\xfa\xfb\x83Ch\x07\xeb\xc0'
p470
tp471
bsVSASKPOWER
p472
g2
(g3
(I0
tp473
g5
tp474
Rp475
(I1
(I2
tp476
g12
I00
S'\x0cUq\xc3\x104\xccB'
p477
tp478
bsS'FI'
p479
g2
(g3
(I0
tp480
g5
tp481
Rp482
(I1
(I2
tp483
g12
I00
S'7\xfc\xcdAJ\xb2wB'
p484
tp485
bsVSN NUCLEARELECTRICA
p486
g2
(g3
(I0
tp487
g5
tp488
Rp489
(I1
(I2
tp490
g12
I00
S'x\x14%\xc0\x98\xe8lC'
p491
tp492
bsVAES TIETE SA
p493
g2
(g3
(I0
tp494
g5
tp495
Rp496
(I1
(I2
tp497
g12
I00
S'.H\xf4\xc2\x1d\xbd\xb7B'
p498
tp499
bsVJOETSU CO-OP THERMAL POWER CO
p500
g2
(g3
(I0
tp501
g5
tp502
Rp503
(I1
(I2
tp504
g12
I00
S'\xfb\xb8\x86C;\xca\x94\xc2'
p505
tp506
bsVCESC LIMITED
p507
g2
(g3
(I0
tp508
g5
tp509
Rp510
(I1
(I2
tp511
g12
I00
S'\xa4=tC\x1c\x82\xa8B'
p512
tp513
bsVDATANG HANCHENG NO 2 POWER PLT
p514
g2
(g3
(I0
tp515
g5
tp516
Rp517
(I1
(I2
tp518
g12
I00
S'\x9cQ\x9cB\x8d\xf0$C'
p519
tp520
bsVOLD DOMINION ELEC COOP
p521
g2
(g3
(I0
tp522
g5
tp523
Rp524
(I1
(I2
tp525
g12
I00
S'\x1a\x9aT\xc3\x8c\xad\xd4@'
p526
tp527
bsVCONTACT ENERGY LTD
p528
g2
(g3
(I0
tp529
g5
tp530
Rp531
(I1
(I2
tp532
g12
I00
S'\xd1\xac\x14C\xc5{C\xc3'
p533
tp534
bsVSC TERMOELECTRICA SA
p535
g2
(g3
(I0
tp536
g5
tp537
Rp538
(I1
(I2
tp539
g12
I00
S"'\xd0V@L\xb0^C"
p540
tp541
bsVLENENERGO
p542
g2
(g3
(I0
tp543
g5
tp544
Rp545
(I1
(I2
tp546
g12
I00
S' wxC\xc7X\xee\xc0'
p547
tp548
bsVASSOCIATED ELECTRIC COOP
p549
g2
(g3
(I0
tp550
g5
tp551
Rp552
(I1
(I2
tp553
g12
I00
S'\xc1\x90L\xc3\x92\xd1\xebA'
p554
tp555
bsVHIDROCANTABRICO
p556
g2
(g3
(I0
tp557
g5
tp558
Rp559
(I1
(I2
tp560
g12
I00
S'\x8a(\xf9BS5t\xc1'
p561
tp562
bsVAPPALACHIAN POWER CO
p563
g2
(g3
(I0
tp564
g5
tp565
Rp566
(I1
(I2
tp567
g12
I00
S'\xe6\x96<\xc3\x17;\xf0>'
p568
tp569
bsVAES GENER
p570
g2
(g3
(I0
tp571
g5
tp572
Rp573
(I1
(I2
tp574
g12
I00
S'\x0b\xa0rBFF\xab\xc2'
p575
tp576
bsVSOUTHERN POWER CO
p577
g2
(g3
(I0
tp578
g5
tp579
Rp580
(I1
(I2
tp581
g12
I00
S'~\xf5H\xc3rO\xe2A'
p582
tp583
bsVVATTENFALL EUROPE AG
p584
g2
(g3
(I0
tp585
g5
tp586
Rp587
(I1
(I2
tp588
g12
I00
S'Y\xa99\xc2\xd5\x17\x81\xc2'
p589
tp590
bsVCERS MOLDOVA
p591
g2
(g3
(I0
tp592
g5
tp593
Rp594
(I1
(I2
tp595
g12
I00
S'`hy\xc2\xf5\xfcZC'
p596
tp597
bsVSHENZHEN GENERAL POWER CORP
p598
g2
(g3
(I0
tp599
g5
tp600
Rp601
(I1
(I2
tp602
g12
I00
S';\xae\xc1B\xee|\x12C'
p603
tp604
bsVCHINA HUADIAN GROUP CORP
p605
g2
(g3
(I0
tp606
g5
tp607
Rp608
(I1
(I2
tp609
g12
I00
S'\xbfAjB\xd5\r\x00C'
p610
tp611
bsVSAYANO-SHUSHENSKAYA HPS
p612
g2
(g3
(I0
tp613
g5
tp614
Rp615
(I1
(I2
tp616
g12
I00
S'\xcf\xa8tC\xae\xbb\xc5@'
p617
tp618
bsVAES ASIA
p619
g2
(g3
(I0
tp620
g5
tp621
Rp622
(I1
(I2
tp623
g12
I00
S'\xec\x0f\xabB6\xe7\xf1B'
p624
tp625
bsVKERNKRAFTWERK PHILIPPSBURG
p626
g2
(g3
(I0
tp627
g5
tp628
Rp629
(I1
(I2
tp630
g12
I00
S'\x10\xc2r\xc2\x02.\xb7\xc2'
p631
tp632
bsVJEA
p633
g2
(g3
(I0
tp634
g5
tp635
Rp636
(I1
(I2
tp637
g12
I00
S' \x9d2\xc3\x00\xa1\x91\xc0'
p638
tp639
bsVSHANGHAI ELECTRIC POWER CO LTD
p640
g2
(g3
(I0
tp641
g5
tp642
Rp643
(I1
(I2
tp644
g12
I00
S'Q\xc9\xbaB\xbdq\x08C'
p645
tp646
bsVTATA POWER CO LTD
p647
g2
(g3
(I0
tp648
g5
tp649
Rp650
(I1
(I2
tp651
g12
I00
S'\x06\xa0NC\xa1\xe6\xa7B'
p652
tp653
bsVTXU ENERGY CO LLC
p654
g2
(g3
(I0
tp655
g5
tp656
Rp657
(I1
(I2
tp658
g12
I00
S'\x91j5\xc3#\x9f\x06\xc1'
p659
tp660
bsVSHANXI LUJIN WANGQU POWER GEN
p661
g2
(g3
(I0
tp662
g5
tp663
Rp664
(I1
(I2
tp665
g12
I00
S'\x94\xcf\xa5B\xe4\x07$C'
p666
tp667
bsVNORSK HYDRO A/S
p668
g2
(g3
(I0
tp669
g5
tp670
Rp671
(I1
(I2
tp672
g12
I00
S'(OF\xc2L/(C'
p673
tp674
bsS'SY'
p675
g2
(g3
(I0
tp676
g5
tp677
Rp678
(I1
(I2
tp679
g12
I00
S'\xbd\xfc\x1bBS5\x0bB'
p680
tp681
bsVENTERGY MISSISSIPPI INC
p682
g2
(g3
(I0
tp683
g5
tp684
Rp685
(I1
(I2
tp686
g12
I00
S'f\xc2N\xc3\xc9\x9c(\xc0'
p687
tp688
bsVGUANGDONG YUEDIAN GROUP
p689
g2
(g3
(I0
tp690
g5
tp691
Rp692
(I1
(I2
tp693
g12
I00
S'\xa3\xe6\xb3BD\xfd\x17C'
p694
tp695
bsS'SK'
p696
g2
(g3
(I0
tp697
g5
tp698
Rp699
(I1
(I2
tp700
g12
I00
S'\x9a\x97\x9dA\x15\xadBB'
p701
tp702
bsVJAPAN ATOMIC POWER CO (JAPC)
p703
g2
(g3
(I0
tp704
g5
tp705
Rp706
(I1
(I2
tp707
g12
I00
S'\xe5l}C\xd0G\xb0\xc2'
p708
tp709
bsVGUANGDONG ELECTRIC POWER CORP
p710
g2
(g3
(I0
tp711
g5
tp712
Rp713
(I1
(I2
tp714
g12
I00
S'\x9c]\xb7B\xfd\xb3\x12C'
p715
tp716
bsVEPCOR GENERATION INC
p717
g2
(g3
(I0
tp718
g5
tp719
Rp720
(I1
(I2
tp721
g12
I00
S'r\xf4d\xc3\xa7}\xe2B'
p722
tp723
bsVNATIONAL ELEC PWR AUTH (NEPA)
p724
g2
(g3
(I0
tp725
g5
tp726
Rp727
(I1
(I2
tp728
g12
I00
S'\xd1y\x1cB\x0b\xc9+\xc2'
p729
tp730
bsS'SG'
p731
g2
(g3
(I0
tp732
g5
tp733
Rp734
(I1
(I2
tp735
g12
I00
S'\xc2\xa3\xcfB\x0e\x11\xad?'
p736
tp737
bsS'SE'
p738
g2
(g3
(I0
tp739
g5
tp740
Rp741
(I1
(I2
tp742
g12
I00
S'\xe4%\x95A=\x83pB'
p743
tp744
bsVAEP PUBLIC SERVICE CO OKLAHOMA
p745
g2
(g3
(I0
tp746
g5
tp747
Rp748
(I1
(I2
tp749
g12
I00
S'\x0b\xcaL\xc3\xb5\xfa\xc9@'
p750
tp751
bsVSAMARAENERGO
p752
g2
(g3
(I0
tp753
g5
tp754
Rp755
(I1
(I2
tp756
g12
I00
S'2\xbcgCo\xbe\x05\xc2'
p757
tp758
bsVPETROLEO BRASIL (PETROBRAS)
p759
g2
(g3
(I0
tp760
g5
tp761
Rp762
(I1
(I2
tp763
g12
I00
S'\xba\x86\xdb\xc2\x83q\xcaB'
p764
tp765
bsVTARONG ENERGY CORP LTD
p766
g2
(g3
(I0
tp767
g5
tp768
Rp769
(I1
(I2
tp770
g12
I00
S'& nA\x97\x8a\xc2\xc2'
p771
tp772
bsVINDIANA MICHIGAN POWER CO
p773
g2
(g3
(I0
tp774
g5
tp775
Rp776
(I1
(I2
tp777
g12
I00
S'\x89fE\xc3:\x99\xedA'
p778
tp779
bsVNUCLEAR POWER CORP INDIA
p780
g2
(g3
(I0
tp781
g5
tp782
Rp783
(I1
(I2
tp784
g12
I00
S'\xac\xb3XC\xf4UyB'
p785
tp786
bsVTECHNICAL UNIT HYDRO [UTIP]
p787
g2
(g3
(I0
tp788
g5
tp789
Rp790
(I1
(I2
tp791
g12
I00
S'F\xb8\x19C\xc2S!\xc3'
p792
tp793
bsVEAST KENTUCKY POWER COOP INC
p794
g2
(g3
(I0
tp795
g5
tp796
Rp797
(I1
(I2
tp798
g12
I00
S'\x1e\xb8R\xc3\xba\xefh\xbf'
p799
tp800
bsVLOUISVILLE GAS & ELEC CO
p801
g2
(g3
(I0
tp802
g5
tp803
Rp804
(I1
(I2
tp805
g12
I00
S'\xd9\x0cP\xc3 \x1a\x07A'
p806
tp807
bsVMALAKOFF BHD
p808
g2
(g3
(I0
tp809
g5
tp810
Rp811
(I1
(I2
tp812
g12
I00
S'\xc1\xda&C\xf6\xeb2C'
p813
tp814
bsVFORTUM GENERATION AB
p815
g2
(g3
(I0
tp816
g5
tp817
Rp818
(I1
(I2
tp819
g12
I00
S':\xebH\xc2\x06\x17TC'
p820
tp821
bsVWESTERN POWER CORP
p822
g2
(g3
(I0
tp823
g5
tp824
Rp825
(I1
(I2
tp826
g12
I00
S'\xaeH\x8bA\xf0b\xd0\xc2'
p827
tp828
bsVPOWERSENOKO LTD
p829
g2
(g3
(I0
tp830
g5
tp831
Rp832
(I1
(I2
tp833
g12
I00
S'\xbe@cB~]\xf5\xc2'
p834
tp835
bsS'LB'
p836
g2
(g3
(I0
tp837
g5
tp838
Rp839
(I1
(I2
tp840
g12
I00
S'\xfbr\x0fB<k\x07B'
p841
tp842
bsVSOCIETE NATIONALE D'ELEC
p843
g2
(g3
(I0
tp844
g5
tp845
Rp846
(I1
(I2
tp847
g12
I00
S'\x15\x12\xb1\xc1\xdeQ,\xc3'
p848
tp849
bsVFARS REGIONAL ELEC POWER CO
p850
g2
(g3
(I0
tp851
g5
tp852
Rp853
(I1
(I2
tp854
g12
I00
S'ZI\x92\xc1\x18\x0e0C'
p855
tp856
bsVBEIJING INTL POW DEV & INVEST
p857
g2
(g3
(I0
tp858
g5
tp859
Rp860
(I1
(I2
tp861
g12
I00
S'\x8f\xe9\xaeB7Z!C'
p862
tp863
bsS'LK'
p864
g2
(g3
(I0
tp865
g5
tp866
Rp867
(I1
(I2
tp868
g12
I00
S')\x8b\xa1B\x0f\xf0\xfb@'
p869
tp870
bsVAES EKIBASTUZ
p871
g2
(g3
(I0
tp872
g5
tp873
Rp874
(I1
(I2
tp875
g12
I00
S'g\xfc\x82Cx\xfe\xa8B'
p876
tp877
bsS'LV'
p878
g2
(g3
(I0
tp879
g5
tp880
Rp881
(I1
(I2
tp882
g12
I00
S'U\xd3\xc4A\xbf\x84cB'
p883
tp884
bsS'LT'
p885
g2
(g3
(I0
tp886
g5
tp887
Rp888
(I1
(I2
tp889
g12
I00
S'\xda\x0c\xbfA\x81\xad\\B'
p890
tp891
bsS'LU'
p892
g2
(g3
(I0
tp893
g5
tp894
Rp895
(I1
(I2
tp896
g12
I00
S'\x8b%\xc4@\xd7BGB'
p897
tp898
bsVKOREA-CHINA HYDROELEC POWER
p899
g2
(g3
(I0
tp900
g5
tp901
Rp902
(I1
(I2
tp903
g12
I00
S'\x15.\x08C\xaa\x1bOB'
p904
tp905
bsVCOMP NATIONALE DU RHONE
p906
g2
(g3
(I0
tp907
g5
tp908
Rp909
(I1
(I2
tp910
g12
I00
S'`\x9f\xc3\xc2\xe7\x05(C'
p911
tp912
bsVTULAENERGO
p913
g2
(g3
(I0
tp914
g5
tp915
Rp916
(I1
(I2
tp917
g12
I00
S'%\x04~C\xe3\x1c\xfd\xc1'
p918
tp919
bsVDAGANGSHAN HYDROELECTRIC PROJ
p920
g2
(g3
(I0
tp921
g5
tp922
Rp923
(I1
(I2
tp924
g12
I00
S'\xeb-\xb8B\xec\xfb\x1cC'
p925
tp926
bsVEL PASO ENERGY INTERNATIONAL
p927
g2
(g3
(I0
tp928
g5
tp929
Rp930
(I1
(I2
tp931
g12
I00
S'\x87]\x17A\xc8\x06\xe4B'
p932
tp933
bsS'LY'
p934
g2
(g3
(I0
tp935
g5
tp936
Rp937
(I1
(I2
tp938
g12
I00
S'\x9f\xd3\x89AI\xae\xd2A'
p939
tp940
bsVMINISTRY HOUSING ELEC & WATER
p941
g2
(g3
(I0
tp942
g5
tp943
Rp944
(I1
(I2
tp945
g12
I00
S'\xb2\x16\x1bC\x84$\xb4\xc2'
p946
tp947
bsVALLEGHENY ENERGY SUPPLY CO LLC
p948
g2
(g3
(I0
tp949
g5
tp950
Rp951
(I1
(I2
tp952
g12
I00
S'\x18>-\xc3f}\xb2@'
p953
tp954
bsVNOVOCHERKASSK SDEPS
p955
g2
(g3
(I0
tp956
g5
tp957
Rp958
(I1
(I2
tp959
g12
I00
S'\x1e\xac\x82C\xb2\x04\xec\xc1'
p960
tp961
bsVCONSOLIDATED EDISON CO
p962
g2
(g3
(I0
tp963
g5
tp964
Rp965
(I1
(I2
tp966
g12
I00
S'sTF\xc3\xed\xbf\x08\xc1'
p967
tp968
bsVERTAN HYDROELECTRIC DEV CO
p969
g2
(g3
(I0
tp970
g5
tp971
Rp972
(I1
(I2
tp973
g12
I00
S'\xc0\x0c\xa4Bs\x16\x1aC'
p974
tp975
bsVENDESA UNELCO
p976
g2
(g3
(I0
tp977
g5
tp978
Rp979
(I1
(I2
tp980
g12
I00
S'\x00\xe6\xebB\xae\xbf\xfc\xc1'
p981
tp982
bsVEESTI ENERGIA SA
p983
g2
(g3
(I0
tp984
g5
tp985
Rp986
(I1
(I2
tp987
g12
I00
S'+\xb5\xd7\xc2~&:C'
p988
tp989
bsVCHINA HUANENG GROUP
p990
g2
(g3
(I0
tp991
g5
tp992
Rp993
(I1
(I2
tp994
g12
I00
S'^Z\xaaB\x08\xdb\x14C'
p995
tp996
bsVIRKUTSKENERGO
p997
g2
(g3
(I0
tp998
g5
tp999
Rp1000
(I1
(I2
tp1001
g12
I00
S'\xb3]\\C\xd2~\xbb\xc1'
p1002
tp1003
bsVKRASNOYARSK HPS
p1004
g2
(g3
(I0
tp1005
g5
tp1006
Rp1007
(I1
(I2
tp1008
g12
I00
S'\xe4\xd7pC\x88\xdd\xa2\xc1'
p1009
tp1010
bsVEGYPTIAN ELECTRICITY HOLDING
p1011
g2
(g3
(I0
tp1012
g5
tp1013
Rp1014
(I1
(I2
tp1015
g12
I00
S'\x0c\xed\x14C\xee\xd3\x89\xc2'
p1016
tp1017
bsVCALPINE CORP
p1018
g2
(g3
(I0
tp1019
g5
tp1020
Rp1021
(I1
(I2
tp1022
g12
I00
S'\xe5)G\xc3~\xe7\x11B'
p1023
tp1024
bsVELEKTROWNIA KOZIENICE SA
p1025
g2
(g3
(I0
tp1026
g5
tp1027
Rp1028
(I1
(I2
tp1029
g12
I00
S'\xd41\xa2\xc2n)\xcb\xc2'
p1030
tp1031
bsS'LA'
p1032
g2
(g3
(I0
tp1033
g5
tp1034
Rp1035
(I1
(I2
tp1036
g12
I00
S'\xb2\xfd\xccB\xa4\xd9\x9eA'
p1037
tp1038
bsVELECTRABEL NEDERLAND
p1039
g2
(g3
(I0
tp1040
g5
tp1041
Rp1042
(I1
(I2
tp1043
g12
I00
S'\x02-\xe6\xc1\x16\x17\xb1\xc2'
p1044
tp1045
bsVWESTAR ENERGY INC
p1046
g2
(g3
(I0
tp1047
g5
tp1048
Rp1049
(I1
(I2
tp1050
g12
I00
S'\xb6\xa9O\xc3\\S\xdaA'
p1051
tp1052
bsVSOMA KYODO POWER CO
p1053
g2
(g3
(I0
tp1054
g5
tp1055
Rp1056
(I1
(I2
tp1057
g12
I00
S'\xa4\x98\x83C\x8e\xbd\xb6\xc2'
p1058
tp1059
bsVMIRANT (PHILIPPINES) CORP
p1060
g2
(g3
(I0
tp1061
g5
tp1062
Rp1063
(I1
(I2
tp1064
g12
I00
S'Lz\x98BO4SC'
p1065
tp1066
bsVKOREA WESTERN POWER (KOWEPO)
p1067
g2
(g3
(I0
tp1068
g5
tp1069
Rp1070
(I1
(I2
tp1071
g12
I00
S'\xef\x92\xccB\xfbYEC'
p1072
tp1073
bsVSITHE ENERGIES
p1074
g2
(g3
(I0
tp1075
g5
tp1076
Rp1077
(I1
(I2
tp1078
g12
I00
S'=Q<\xc3W\xc2\x1dB'
p1079
tp1080
bsVCHINA NATIONAL NUCLEAR CORP
p1081
g2
(g3
(I0
tp1082
g5
tp1083
Rp1084
(I1
(I2
tp1085
g12
I00
S'\xb4\x89\xadB\x08\x19\tC'
p1086
tp1087
bsVVIESGO SL
p1088
g2
(g3
(I0
tp1089
g5
tp1090
Rp1091
(I1
(I2
tp1092
g12
I00
S'LH\xedBX\xa0\xb4\xc1'
p1093
tp1094
bsVSEMPRA ENERGY RESOURCES
p1095
g2
(g3
(I0
tp1096
g5
tp1097
Rp1098
(I1
(I2
tp1099
g12
I00
S'\x1b\xac2\xc3\x11(\xf5A'
p1100
tp1101
bsVKYUSHU ELECTRIC POWER CO
p1102
g2
(g3
(I0
tp1103
g5
tp1104
Rp1105
(I1
(I2
tp1106
g12
I00
S'e.LC1\x9c\xad\xc2'
p1107
tp1108
bsVVERBUND-AUSTRIAN THERMAL POWER
p1109
g2
(g3
(I0
tp1110
g5
tp1111
Rp1112
(I1
(I2
tp1113
g12
I00
S'\xe7\xac\x02C4\xdf\x14\xc2'
p1114
tp1115
bsVTYUMENENERGO
p1116
g2
(g3
(I0
tp1117
g5
tp1118
Rp1119
(I1
(I2
tp1120
g12
I00
S'\xa8\x00kC\xa1\xc4"\xc1'
p1121
tp1122
bsVSOUTHERN NUCLEAR
p1123
g2
(g3
(I0
tp1124
g5
tp1125
Rp1126
(I1
(I2
tp1127
g12
I00
S'\xbd\xf8A\xc3\xb5\x99\xd9\xc0'
p1128
tp1129
bsVEDISON SPA
p1130
g2
(g3
(I0
tp1131
g5
tp1132
Rp1133
(I1
(I2
tp1134
g12
I00
S'\xeb\x19\x81B\x04\xe0\x91\xc2'
p1135
tp1136
bsVCJSC EKIBASTUZ ENERGOTSENTR
p1137
g2
(g3
(I0
tp1138
g5
tp1139
Rp1140
(I1
(I2
tp1141
g12
I00
S';hxC\xa1\x04\x0bC'
p1142
tp1143
bsVAES CORP
p1144
g2
(g3
(I0
tp1145
g5
tp1146
Rp1147
(I1
(I2
tp1148
g12
I00
S'\x88>\x13\xc3\x19\xad\\@'
p1149
tp1150
bsVBAHRAIN MIN ELEC & WATER
p1151
g2
(g3
(I0
tp1152
g5
tp1153
Rp1154
(I1
(I2
tp1155
g12
I00
S'\x13H\xdeA\xceoGC'
p1156
tp1157
bsS'RU'
p1158
g2
(g3
(I0
tp1159
g5
tp1160
Rp1161
(I1
(I2
tp1162
g12
I00
S'4\xa3\xd2B\x96\x18vB'
p1163
tp1164
bsVHUNAN PROVINCIAL POWER CO
p1165
g2
(g3
(I0
tp1166
g5
tp1167
Rp1168
(I1
(I2
tp1169
g12
I00
S'\xa9A\xadB\xc2\xe3\x0eC'
p1170
tp1171
bsVUS ARMY CORPS ENGINEERS
p1172
g2
(g3
(I0
tp1173
g5
tp1174
Rp1175
(I1
(I2
tp1176
g12
I00
S'u\x834\xc3\xd0\t\xbeA'
p1177
tp1178
bsVHUBEI ELECTRIC POWER CO
p1179
g2
(g3
(I0
tp1180
g5
tp1181
Rp1182
(I1
(I2
tp1183
g12
I00
S'K\xb8\x98B\x9d\xc5\x1aC'
p1184
tp1185
bsVKOZLODUY NUCLEAR POWER PLANT
p1186
g2
(g3
(I0
tp1187
g5
tp1188
Rp1189
(I1
(I2
tp1190
g12
I00
S'\xee\xedF\xc2\xe4\xf4\xe4\xc2'
p1191
tp1192
bsVWEST BENGAL POWER DEV CORP
p1193
g2
(g3
(I0
tp1194
g5
tp1195
Rp1196
(I1
(I2
tp1197
g12
I00
S'\r\xd5hC\xb1|nB'
p1198
tp1199
bsVINTERNATIONAL PAPER CO
p1200
g2
(g3
(I0
tp1201
g5
tp1202
Rp1203
(I1
(I2
tp1204
g12
I00
S'\x85jD\xc3\n\xa8J\xc1'
p1205
tp1206
bsVCA ELEC DE CARACAS [ELECAR]
p1207
g2
(g3
(I0
tp1208
g5
tp1209
Rp1210
(I1
(I2
tp1211
g12
I00
S')&\x9bB4\x03\xcfA'
p1212
tp1213
bsVINNER MONGOLIA ELECTRIC POWER
p1214
g2
(g3
(I0
tp1215
g5
tp1216
Rp1217
(I1
(I2
tp1218
g12
I00
S'\x9b\x07\xa1B.[\tC'
p1219
tp1220
bsVCONSUMERS ENERGY CO
p1221
g2
(g3
(I0
tp1222
g5
tp1223
Rp1224
(I1
(I2
tp1225
g12
I00
S'\xa9-B\xc3\xd1\xaf\xadA'
p1226
tp1227
bsVARIZONA PUBLIC SERVICE CO
p1228
g2
(g3
(I0
tp1229
g5
tp1230
Rp1231
(I1
(I2
tp1232
g12
I00
S'^\x9fA\xc3%F\xd2A'
p1233
tp1234
bsVTENAGA JANAMANJUNG SDN BHD
p1235
g2
(g3
(I0
tp1236
g5
tp1237
Rp1238
(I1
(I2
tp1239
g12
I00
S'\x85M\x12C\xb3\xcdHC'
p1240
tp1241
bsVTEXAS GENCO HOLDINGS
p1242
g2
(g3
(I0
tp1243
g5
tp1244
Rp1245
(I1
(I2
tp1246
g12
I00
S'\xba\x857\xc3\xa57\xd2A'
p1247
tp1248
bsVKHABAROVSKENERGO
p1249
g2
(g3
(I0
tp1250
g5
tp1251
Rp1252
(I1
(I2
tp1253
g12
I00
S'\xf9\xf3wCSN\xd9\xc1'
p1254
tp1255
bsVANDHRA PRADESH POWER GEN CORP
p1256
g2
(g3
(I0
tp1257
g5
tp1258
Rp1259
(I1
(I2
tp1260
g12
I00
S'Yo[C\xdd\xcd\xb0B'
p1261
tp1262
bsVELEKTROWNIA TUROW SA
p1263
g2
(g3
(I0
tp1264
g5
tp1265
Rp1266
(I1
(I2
tp1267
g12
I00
S'\x92\x96\xbc\xc2m\x98\xc4\xc2'
p1268
tp1269
bsVSOC NAT ELEC GAZ (SONELGAZ)
p1270
g2
(g3
(I0
tp1271
g5
tp1272
Rp1273
(I1
(I2
tp1274
g12
I00
S'?\x82\x07C\x13\xeeT\xc2'
p1275
tp1276
bsVMYANMAR MINISTRY ELEC POWER
p1277
g2
(g3
(I0
tp1278
g5
tp1279
Rp1280
(I1
(I2
tp1281
g12
I00
S'3E\x9fBs\xefMC'
p1282
tp1283
bsVUZBEKENERGO
p1284
g2
(g3
(I0
tp1285
g5
tp1286
Rp1287
(I1
(I2
tp1288
g12
I00
S'\xc8\xb6=\xc2pi\xedB'
p1289
tp1290
bsVFORMOSA PLASTICS CORP
p1291
g2
(g3
(I0
tp1292
g5
tp1293
Rp1294
(I1
(I2
tp1295
g12
I00
S'\xb7=\x16\xc3\\%\xe8\xc0'
p1296
tp1297
bsVISRAEL ELECTRIC CORP
p1298
g2
(g3
(I0
tp1299
g5
tp1300
Rp1301
(I1
(I2
tp1302
g12
I00
S'i\xbcbAJ\x17KC'
p1303
tp1304
bsVCHINA YANGTZE POWER CORP (CYP)
p1305
g2
(g3
(I0
tp1306
g5
tp1307
Rp1308
(I1
(I2
tp1309
g12
I00
S'9\x07\xa9B\x83\xcd\xfdB'
p1310
tp1311
bsVALCAN PRIMARY METALS GROUP
p1312
g2
(g3
(I0
tp1313
g5
tp1314
Rp1315
(I1
(I2
tp1316
g12
I00
S'\xa7\x7fv\xc3W\xb5\xacB'
p1317
tp1318
bsVPEABODY ENERGY CORP
p1319
g2
(g3
(I0
tp1320
g5
tp1321
Rp1322
(I1
(I2
tp1323
g12
I00
S'\xed\xceJ\xc3\xac\x81\xe3\xc0'
p1324
tp1325
bsVPUBLIC ESTAB GEN & TRANS ELEC
p1326
g2
(g3
(I0
tp1327
g5
tp1328
Rp1329
(I1
(I2
tp1330
g12
I00
S'#\x1c\x18C\x02\xd6\x0eC'
p1331
tp1332
bsVTENASKA INC
p1333
g2
(g3
(I0
tp1334
g5
tp1335
Rp1336
(I1
(I2
tp1337
g12
I00
S'\x9b\xdbA\xc3;.UA'
p1338
tp1339
bsVDUKE ENERGY AMERICAS
p1340
g2
(g3
(I0
tp1341
g5
tp1342
Rp1343
(I1
(I2
tp1344
g12
I00
S'\xe6\xa1C\xc3\x98r\x11B'
p1345
tp1346
bsVHIDROELECTRICA DE CAHORA BASSA
p1347
g2
(g3
(I0
tp1348
g5
tp1349
Rp1350
(I1
(I2
tp1351
g12
I00
S'\xf0`VC\xc7\xb4\xb8\xc2'
p1352
tp1353
bsVDUKE ENERGY CORP
p1354
g2
(g3
(I0
tp1355
g5
tp1356
Rp1357
(I1
(I2
tp1358
g12
I00
S'\xa4q=\xc3~<\xa5A'
p1359
tp1360
bsVKONAKOVO SDEPS
p1361
g2
(g3
(I0
tp1362
g5
tp1363
Rp1364
(I1
(I2
tp1365
g12
I00
S'\xd4\xe9\x84C7\x0f\xbb\xc1'
p1366
tp1367
bsVENERGIE BADEN-WURTTEMBERG ENBW
p1368
g2
(g3
(I0
tp1369
g5
tp1370
Rp1371
(I1
(I2
tp1372
g12
I00
S'\x9f\xf1\x8a\xc2\xe7\x9d}\xc2'
p1373
tp1374
bsVZHEJIANG PROVINCIAL ELEC POWER
p1375
g2
(g3
(I0
tp1376
g5
tp1377
Rp1378
(I1
(I2
tp1379
g12
I00
S'\xcd\x02\xa6BiD\x04C'
p1380
tp1381
bsVHEBEI ELECTRIC POWER CORP
p1382
g2
(g3
(I0
tp1383
g5
tp1384
Rp1385
(I1
(I2
tp1386
g12
I00
S'~Z\x98B\x0b\x07\x10C'
p1387
tp1388
bsVCLP POWER CHINA LTD
p1389
g2
(g3
(I0
tp1390
g5
tp1391
Rp1392
(I1
(I2
tp1393
g12
I00
S'\xe1\xca\x91B<F\x16C'
p1394
tp1395
bsVELET SAO PAULO (METROPOLITANA)
p1396
g2
(g3
(I0
tp1397
g5
tp1398
Rp1399
(I1
(I2
tp1400
g12
I00
S'\xe0\x1a\xf3\xc2\xfa\x17\xddA'
p1401
tp1402
bsVMEIYA POWER CO
p1403
g2
(g3
(I0
tp1404
g5
tp1405
Rp1406
(I1
(I2
tp1407
g12
I00
S'\x1d\x14\xcaB\xc0\x01\tC'
p1408
tp1409
bsVPACIFIC GAS AND ELECTRIC CO
p1410
g2
(g3
(I0
tp1411
g5
tp1412
Rp1413
(I1
(I2
tp1414
g12
I00
S'g\xfe=\xc3D\xbe\xc6A'
p1415
tp1416
bsVCHINA GUODIAN GROUP
p1417
g2
(g3
(I0
tp1418
g5
tp1419
Rp1420
(I1
(I2
tp1421
g12
I00
S'I\xc6\x8cB\xa6F\x1cC'
p1422
tp1423
bsVCA ENER MINAS GERAIS (CEMIG)
p1424
g2
(g3
(I0
tp1425
g5
tp1426
Rp1427
(I1
(I2
tp1428
g12
I00
S'\xba\xe8\xc0\xc2\x0b\x11\x97B'
p1429
tp1430
bsVDPL ENERGY
p1431
g2
(g3
(I0
tp1432
g5
tp1433
Rp1434
(I1
(I2
tp1435
g12
I00
S'\xa6WP\xc39\xb9\xcb\xc0'
p1436
tp1437
bsVGENERAL ELECTRIC CO OF LIBYA
p1438
g2
(g3
(I0
tp1439
g5
tp1440
Rp1441
(I1
(I2
tp1442
g12
I00
S'C\x14\xa7\xc2\xb3\xe7\x15C'
p1443
tp1444
bsVCHURCHILL FALLS LABRADOR
p1445
g2
(g3
(I0
tp1446
g5
tp1447
Rp1448
(I1
(I2
tp1449
g12
I00
S'\xdd5=\xc3\xe7\xf7\xa2B'
p1450
tp1451
bsVHARYANA POWER GEN CO (HPGC)
p1452
g2
(g3
(I0
tp1453
g5
tp1454
Rp1455
(I1
(I2
tp1456
g12
I00
S'\x04\x05fCK\xb2\xbbB'
p1457
tp1458
bsVDALENERGO
p1459
g2
(g3
(I0
tp1460
g5
tp1461
Rp1462
(I1
(I2
tp1463
g12
I00
S'\x03\x82OCY\x98\xcc\xc1'
p1464
tp1465
bsS'EE'
p1466
g2
(g3
(I0
tp1467
g5
tp1468
Rp1469
(I1
(I2
tp1470
g12
I00
S'\xde\x1b\xc8A\x8fajB'
p1471
tp1472
bsS'EG'
p1473
g2
(g3
(I0
tp1474
g5
tp1475
Rp1476
(I1
(I2
tp1477
g12
I00
S'\x84k\xf6A~\x90\xd6A'
p1478
tp1479
bsVHENAN ELECTRIC POWER CO
p1480
g2
(g3
(I0
tp1481
g5
tp1482
Rp1483
(I1
(I2
tp1484
g12
I00
S'\xfe[\xb1B@\x0b\x04C'
p1485
tp1486
bsVNECKARWERKE STUTTGART AG (NWS)
p1487
g2
(g3
(I0
tp1488
g5
tp1489
Rp1490
(I1
(I2
tp1491
g12
I00
S'\xcd\xf8V\xc2\xf7\xb1\xad\xc2'
p1492
tp1493
bsVNATIONAL ENERGY & GAS TRANSM
p1494
g2
(g3
(I0
tp1495
g5
tp1496
Rp1497
(I1
(I2
tp1498
g12
I00
S'h}9\xc3\x93\xd9\xb4A'
p1499
tp1500
bsVKANSAS CITY POWER & LIGHT
p1501
g2
(g3
(I0
tp1502
g5
tp1503
Rp1504
(I1
(I2
tp1505
g12
I00
S'\xf2lM\xc3-\xacaA'
p1506
tp1507
bsVSC ELECTROCENTRALE BUCURESTI
p1508
g2
(g3
(I0
tp1509
g5
tp1510
Rp1511
(I1
(I2
tp1512
g12
I00
S'\xf7\x0b\x8e\xc1\x98uJC'
p1513
tp1514
bsS'ET'
p1515
g2
(g3
(I0
tp1516
g5
tp1517
Rp1518
(I1
(I2
tp1519
g12
I00
S'm\xf5!B\xecQ\x12A'
p1520
tp1521
bsVAQUILA INC
p1522
g2
(g3
(I0
tp1523
g5
tp1524
Rp1525
(I1
(I2
tp1526
g12
I00
S'\xb1&V\xc3\xe6\x87X\xc1'
p1527
tp1528
bsS'ES'
p1529
g2
(g3
(I0
tp1530
g5
tp1531
Rp1532
(I1
(I2
tp1533
g12
I00
S'8\xf3o\xc0\xcc\xda!B'
p1534
tp1535
bsVIBERDROLA ENERGIA
p1536
g2
(g3
(I0
tp1537
g5
tp1538
Rp1539
(I1
(I2
tp1540
g12
I00
S'\xa5 \x16\xc3\x9f\xb7\xebB'
p1541
tp1542
bsVELECTRICITE DE FRANCE INTL
p1543
g2
(g3
(I0
tp1544
g5
tp1545
Rp1546
(I1
(I2
tp1547
g12
I00
S'#\xd0\xfeB\xd8\x1a\xc6\xc2'
p1548
tp1549
bsVPOWERSERAYA LTD
p1550
g2
(g3
(I0
tp1551
g5
tp1552
Rp1553
(I1
(I2
tp1554
g12
I00
S'%\xee\xb5Bz\xee\xc9\xc1'
p1555
tp1556
bsVE.ON WASSERKRAFT
p1557
g2
(g3
(I0
tp1558
g5
tp1559
Rp1560
(I1
(I2
tp1561
g12
I00
S'\x9b\x0b\x82\xc2U\xdc\xa0\xc2'
p1562
tp1563
bsVELECTRICITY OF VIETNAM (EVN)
p1564
g2
(g3
(I0
tp1565
g5
tp1566
Rp1567
(I1
(I2
tp1568
g12
I00
S'\x9b\xdf\x1eC\xcf*\x08\xc3'
p1569
tp1570
bsVAMERENENERGY GENERATING CO
p1571
g2
(g3
(I0
tp1572
g5
tp1573
Rp1574
(I1
(I2
tp1575
g12
I00
S'H\x1e<\xc3R@=\xc1'
p1576
tp1577
bsVRATCHABURI ELEC GEN HOLDING
p1578
g2
(g3
(I0
tp1579
g5
tp1580
Rp1581
(I1
(I2
tp1582
g12
I00
S'/\xffOC\n\x05\xfd\xc2'
p1583
tp1584
bsVCOMISION FEDERAL DE ELEC
p1585
g2
(g3
(I0
tp1586
g5
tp1587
Rp1588
(I1
(I2
tp1589
g12
I00
S'\xfeG-\xc3\xa6O\xf3B'
p1590
tp1591
bsVCMS GENERATION CO
p1592
g2
(g3
(I0
tp1593
g5
tp1594
Rp1595
(I1
(I2
tp1596
g12
I00
S'[,G\xc3\xd1\xc1s\xc1'
p1597
tp1598
bsVSOUTHWESTERN PUB SERV CO
p1599
g2
(g3
(I0
tp1600
g5
tp1601
Rp1602
(I1
(I2
tp1603
g12
I00
S'7\xef/\xc3\x90\x03\x8dA'
p1604
tp1605
bsVSHANDONG LUNENG GROUP
p1606
g2
(g3
(I0
tp1607
g5
tp1608
Rp1609
(I1
(I2
tp1610
g12
I00
S'\xd0m\x89B\xc2\xef%C'
p1611
tp1612
bsVSNOWY HYDRO LTD
p1613
g2
(g3
(I0
tp1614
g5
tp1615
Rp1616
(I1
(I2
tp1617
g12
I00
S'\x01\x0eJ?o\x83\xba\xc2'
p1618
tp1619
bsVZHEJIANG SOUTHEAST ELEC POWER
p1620
g2
(g3
(I0
tp1621
g5
tp1622
Rp1623
(I1
(I2
tp1624
g12
I00
S'y0\x88B\xd8\xd6 C'
p1625
tp1626
bsVTAMIL NADU ELECTRICITY BOARD
p1627
g2
(g3
(I0
tp1628
g5
tp1629
Rp1630
(I1
(I2
tp1631
g12
I00
S'G\x98_C`\x89eB'
p1632
tp1633
bsVGUANGDONG NUC POWER GROUP CO
p1634
g2
(g3
(I0
tp1635
g5
tp1636
Rp1637
(I1
(I2
tp1638
g12
I00
S'\xe8\x08\xa3B\x0c\x11\x0fC'
p1639
tp1640
bsVLANDSVIRKJUN
p1641
g2
(g3
(I0
tp1642
g5
tp1643
Rp1644
(I1
(I2
tp1645
g12
I00
S'k)\xeb\xc2t\xabcC'
p1646
tp1647
bsVKARACHI ELECTRIC SUPPLY CORP
p1648
g2
(g3
(I0
tp1649
g5
tp1650
Rp1651
(I1
(I2
tp1652
g12
I00
S'n\xcb\x98@\tgGC'
p1653
tp1654
bsVROSENERGOATOM
p1655
g2
(g3
(I0
tp1656
g5
tp1657
Rp1658
(I1
(I2
tp1659
g12
I00
S'\xc9%VCQa\xcb\xc1'
p1660
tp1661
bsVSP POWER DEVELOPMENT CO LTD
p1662
g2
(g3
(I0
tp1663
g5
tp1664
Rp1665
(I1
(I2
tp1666
g12
I00
S'\xa6V\x9eB\xaa,\x15C'
p1667
tp1668
bsVCVG ELECTRIFICACION DEL CARONI
p1669
g2
(g3
(I0
tp1670
g5
tp1671
Rp1672
(I1
(I2
tp1673
g12
I00
S'\xee\xdc\xe5A\x829T\xc2'
p1674
tp1675
bsVELECTRICITE DE FRANCE
p1676
g2
(g3
(I0
tp1677
g5
tp1678
Rp1679
(I1
(I2
tp1680
g12
I00
S'a6\xcb\xc2s\x99\x04C'
p1681
tp1682
bsVCA ADMIN Y FOMENTO ELECTRICO
p1683
g2
(g3
(I0
tp1684
g5
tp1685
Rp1686
(I1
(I2
tp1687
g12
I00
S'X\xfaKB\xea\xc1\x06\xc2'
p1688
tp1689
bsVDETROIT EDISON CO
p1690
g2
(g3
(I0
tp1691
g5
tp1692
Rp1693
(I1
(I2
tp1694
g12
I00
S'o::\xc3\xc71\x8dA'
p1695
tp1696
bsVTAMPA ELECTRIC CO
p1697
g2
(g3
(I0
tp1698
g5
tp1699
Rp1700
(I1
(I2
tp1701
g12
I00
S'\xd4\xf1?\xc3Y2#\xc1'
p1702
tp1703
bsVTENAGA NASIONAL BERHAD (TNB)
p1704
g2
(g3
(I0
tp1705
g5
tp1706
Rp1707
(I1
(I2
tp1708
g12
I00
S'\x9e&IC0L#C'
p1709
tp1710
bsVROSTOVENERGO JSC
p1711
g2
(g3
(I0
tp1712
g5
tp1713
Rp1714
(I1
(I2
tp1715
g12
I00
S'\xad\x8f\x87C*\x13$\xc1'
p1716
tp1717
bsVGANSU ELECTRIC POWER CO
p1718
g2
(g3
(I0
tp1719
g5
tp1720
Rp1721
(I1
(I2
tp1722
g12
I00
S'\x1e\x82\x95B\xec\x0c C'
p1723
tp1724
bsVINTERGEN NORTH AMERICA
p1725
g2
(g3
(I0
tp1726
g5
tp1727
Rp1728
(I1
(I2
tp1729
g12
I00
S'Z\x7f.\xc3\x98\x0eY\xc0'
p1730
tp1731
bsVAZERENERJI
p1732
g2
(g3
(I0
tp1733
g5
tp1734
Rp1735
(I1
(I2
tp1736
g12
I00
S'\x05\xb0\x8cB\xff\x07\n\xc3'
p1737
tp1738
bsVTAIYUAN NO 1 THERMAL POWER PLT
p1739
g2
(g3
(I0
tp1740
g5
tp1741
Rp1742
(I1
(I2
tp1743
g12
I00
S'\xaa\xcd~BR\x08%C'
p1744
tp1745
bsVTOKYO ELECTRIC POWER CO
p1746
g2
(g3
(I0
tp1747
g5
tp1748
Rp1749
(I1
(I2
tp1750
g12
I00
S'\xf2&oCz\x93H\xc2'
p1751
tp1752
bsVLATVENERGO
p1753
g2
(g3
(I0
tp1754
g5
tp1755
Rp1756
(I1
(I2
tp1757
g12
I00
S'\x9aV3C\x88\x8a:B'
p1758
tp1759
bsVRAJASTHAN RV UTPADAN NIGAM
p1760
g2
(g3
(I0
tp1761
g5
tp1762
Rp1763
(I1
(I2
tp1764
g12
I00
S'A.QC\x08;\xc5B'
p1765
tp1766
bsVGREAT RIVER ENERGY
p1767
g2
(g3
(I0
tp1768
g5
tp1769
Rp1770
(I1
(I2
tp1771
g12
I00
S'\xf4\x92U\xc3N\xbe(A'
p1772
tp1773
bsVKYRGYZENERGO
p1774
g2
(g3
(I0
tp1775
g5
tp1776
Rp1777
(I1
(I2
tp1778
g12
I00
S'\xf8\x1c\x94\xc1UfLC'
p1779
tp1780
bsVSAARENERGIE GMBH
p1781
g2
(g3
(I0
tp1782
g5
tp1783
Rp1784
(I1
(I2
tp1785
g12
I00
S'\xf1\xaa\x8d\xc2\x0c\xbe\xad\xc2'
p1786
tp1787
bsVMIRANT CORP
p1788
g2
(g3
(I0
tp1789
g5
tp1790
Rp1791
(I1
(I2
tp1792
g12
I00
S'\xbfz>\xc37\xf8\x82A'
p1793
tp1794
bsVKUWAIT MINISTRY ELEC & WATER
p1795
g2
(g3
(I0
tp1796
g5
tp1797
Rp1798
(I1
(I2
tp1799
g12
I00
S'\xdd\xf9|B\x89~\x11\xc3'
p1800
tp1801
bsVAEP RESOURCES INC
p1802
g2
(g3
(I0
tp1803
g5
tp1804
Rp1805
(I1
(I2
tp1806
g12
I00
S'fhG\xc3\xa1\x83\xa0A'
p1807
tp1808
bsVWATER & POWER DEVELOP AUTH
p1809
g2
(g3
(I0
tp1810
g5
tp1811
Rp1812
(I1
(I2
tp1813
g12
I00
S'f\x8f\xfc\xc0?\x98\x11C'
p1814
tp1815
bsVPANDA ENERGY INTERNATIONAL INC
p1816
g2
(g3
(I0
tp1817
g5
tp1818
Rp1819
(I1
(I2
tp1820
g12
I00
S's\x99\xab\xc2\xe1\xc7qB'
p1821
tp1822
bsS'KG'
p1823
g2
(g3
(I0
tp1824
g5
tp1825
Rp1826
(I1
(I2
tp1827
g12
I00
S'>\x88\x95BI\xd1$B'
p1828
tp1829
bsVGUIZHOU ELECTRIC POWER CO
p1830
g2
(g3
(I0
tp1831
g5
tp1832
Rp1833
(I1
(I2
tp1834
g12
I00
S']B\x85B\xd8S\x07C'
p1835
tp1836
bsVINTERNATIONAL POWER PLC
p1837
g2
(g3
(I0
tp1838
g5
tp1839
Rp1840
(I1
(I2
tp1841
g12
I00
S'M)eB\x9cl\x88B'
p1842
tp1843
bsVDELTA ELECTRICITY
p1844
g2
(g3
(I0
tp1845
g5
tp1846
Rp1847
(I1
(I2
tp1848
g12
I00
S'\x14\xd7`A\xe3\x18\x8a\xc2'
p1849
tp1850
bsS'KR'
p1851
g2
(g3
(I0
tp1852
g5
tp1853
Rp1854
(I1
(I2
tp1855
g12
I00
S'\xaa\x88\xffB\x8b\xa1\x0fB'
p1856
tp1857
bsS'KP'
p1858
g2
(g3
(I0
tp1859
g5
tp1860
Rp1861
(I1
(I2
tp1862
g12
I00
S'+\x05\xffB\x02\\!B'
p1863
tp1864
bsVENTIDAD BINACIONAL YACYRETA
p1865
g2
(g3
(I0
tp1866
g5
tp1867
Rp1868
(I1
(I2
tp1869
g12
I00
S'\xdf\xcd(\xc3\xbd\x8b1\xc3'
p1870
tp1871
bsVMOSENERGO
p1872
g2
(g3
(I0
tp1873
g5
tp1874
Rp1875
(I1
(I2
tp1876
g12
I00
S'\x12\x90nCa\x82\xdd\xbe'
p1877
tp1878
bsS'KZ'
p1879
g2
(g3
(I0
tp1880
g5
tp1881
Rp1882
(I1
(I2
tp1883
g12
I00
S'\xed\xd8\x85B\x0b\x14@B'
p1884
tp1885
bsVZAKHIDENERGO
p1886
g2
(g3
(I0
tp1887
g5
tp1888
Rp1889
(I1
(I2
tp1890
g12
I00
S'\xf8\x1f\xd0B\x80\x87\xe0\xc2'
p1891
tp1892
bsVDOMINION VIRGINIA POWER
p1893
g2
(g3
(I0
tp1894
g5
tp1895
Rp1896
(I1
(I2
tp1897
g12
I00
S'\xc6\x8e-\xc3"\x85\x1cA'
p1898
tp1899
bsVVATTENFALL AB
p1900
g2
(g3
(I0
tp1901
g5
tp1902
Rp1903
(I1
(I2
tp1904
g12
I00
S'<\xaa\x02\xc2y\x9f7C'
p1905
tp1906
bsVTRI-STATE G&T ASSN
p1907
g2
(g3
(I0
tp1908
g5
tp1909
Rp1910
(I1
(I2
tp1911
g12
I00
S'\xb6k:\xc3\x98Vv\xc1'
p1912
tp1913
bsVDYNEGY OPERATING CO
p1914
g2
(g3
(I0
tp1915
g5
tp1916
Rp1917
(I1
(I2
tp1918
g12
I00
S'\xaf\xda:\xc3\x91\xc9\xdcA'
p1919
tp1920
bsVAGENCIA NACIONAL ENERGIA ELET
p1921
g2
(g3
(I0
tp1922
g5
tp1923
Rp1924
(I1
(I2
tp1925
g12
I00
S'!j\x03\xc3\xab\x14UB'
p1926
tp1927
bsVSTEAG AG
p1928
g2
(g3
(I0
tp1929
g5
tp1930
Rp1931
(I1
(I2
tp1932
g12
I00
S'\xf2\xf1\x9e\xc2\xbe\x1dx\xc2'
p1933
tp1934
bsVMIDWEST GENERATION
p1935
g2
(g3
(I0
tp1936
g5
tp1937
Rp1938
(I1
(I2
tp1939
g12
I00
S'\xa3\t2\xc3#\x85\xa5A'
p1940
tp1941
bsVE.ON BAYERN AG
p1942
g2
(g3
(I0
tp1943
g5
tp1944
Rp1945
(I1
(I2
tp1946
g12
I00
S'\x86\xf1r\xc2\xc4\xb0\x91\xc2'
p1947
tp1948
bsS'DZ'
p1949
g2
(g3
(I0
tp1950
g5
tp1951
Rp1952
(I1
(I2
tp1953
g12
I00
S'\xa0n\xd4?fE\xe0A'
p1954
tp1955
bsVPROGRESS ENERGY VENTURES
p1956
g2
(g3
(I0
tp1957
g5
tp1958
Rp1959
(I1
(I2
tp1960
g12
I00
S'\xd5\x85U\xc3\xb2\xf0\t@'
p1961
tp1962
bsVANHUI ELECTRIC POWER CO
p1963
g2
(g3
(I0
tp1964
g5
tp1965
Rp1966
(I1
(I2
tp1967
g12
I00
S'\xe2\x8foB41\xf0B'
p1968
tp1969
bsVMISSISSIPPI POWER CO
p1970
g2
(g3
(I0
tp1971
g5
tp1972
Rp1973
(I1
(I2
tp1974
g12
I00
S'x\xaeT\xc3\xd2\xbekA'
p1975
tp1976
bsVEMP PUBLICAS MEDELLIN (EPM)
p1977
g2
(g3
(I0
tp1978
g5
tp1979
Rp1980
(I1
(I2
tp1981
g12
I00
S'\x06\xc8\xc3\xc2\xccl`B'
p1982
tp1983
bsVHORMOZGAN REGIONAL ELEC POWER
p1984
g2
(g3
(I0
tp1985
g5
tp1986
Rp1987
(I1
(I2
tp1988
g12
I00
S'xb#\xc2\x93T\x1aC'
p1989
tp1990
bsVCESP
p1991
g2
(g3
(I0
tp1992
g5
tp1993
Rp1994
(I1
(I2
tp1995
g12
I00
S'\xbc\xf1\xc2\xc2\xd2\xb3\xaeB'
p1996
tp1997
bsVTURKMENISTAN MIN ENERGY & IND
p1998
g2
(g3
(I0
tp1999
g5
tp2000
Rp2001
(I1
(I2
tp2002
g12
I00
S'\xdb\x14xC\x1a\xe9(B'
p2003
tp2004
bsVKAZAK STATE ATOMIC ENERGY
p2005
g2
(g3
(I0
tp2006
g5
tp2007
Rp2008
(I1
(I2
tp2009
g12
I00
S'\xe5\xdajC|w\x15C'
p2010
tp2011
bsVZIMBABWE ELEC SUPPLY AUTH
p2012
g2
(g3
(I0
tp2013
g5
tp2014
Rp2015
(I1
(I2
tp2016
g12
I00
S'\xf4\x80:B\x95=J\xc3'
p2017
tp2018
bsVLOUISIANA GENERATING
p2019
g2
(g3
(I0
tp2020
g5
tp2021
Rp2022
(I1
(I2
tp2023
g12
I00
S'\xec:X\xc3\x91p\x01\xc0'
p2024
tp2025
bsVINTERMOUNTAIN POWER AGCY
p2026
g2
(g3
(I0
tp2027
g5
tp2028
Rp2029
(I1
(I2
tp2030
g12
I00
S'\xd15]\xc3n\xbbWA'
p2031
tp2032
bsVONTARIO POWER GENERATION INC
p2033
g2
(g3
(I0
tp2034
g5
tp2035
Rp2036
(I1
(I2
tp2037
g12
I00
S'(\x96`\xc3\xab\x14\xb5B'
p2038
tp2039
bsVAMERGEN ENERGY CO LLC
p2040
g2
(g3
(I0
tp2041
g5
tp2042
Rp2043
(I1
(I2
tp2044
g12
I00
S'\x8bOT\xc3\xa3\xc9\xc3A'
p2045
tp2046
bsVNEYVELI LIGNITE CORP LTD
p2047
g2
(g3
(I0
tp2048
g5
tp2049
Rp2050
(I1
(I2
tp2051
g12
I00
S'\xbd\xe6lC\x9eS\xb0B'
p2052
tp2053
bsVMAILIAO POWER CO
p2054
g2
(g3
(I0
tp2055
g5
tp2056
Rp2057
(I1
(I2
tp2058
g12
I00
S'\xac\x9a\x04B\x1d{\xe1\xc2'
p2059
tp2060
bsVELSAM A/S
p2061
g2
(g3
(I0
tp2062
g5
tp2063
Rp2064
(I1
(I2
tp2065
g12
I00
S'\x07\xec\xa0@3[9C'
p2066
tp2067
bsVCHATTISGARH STATE ELEC BOARD
p2068
g2
(g3
(I0
tp2069
g5
tp2070
Rp2071
(I1
(I2
tp2072
g12
I00
S'\xcf(fCK\xf5\xcaB'
p2073
tp2074
bsVTOHOKU ELECTRIC POWER CO
p2075
g2
(g3
(I0
tp2076
g5
tp2077
Rp2078
(I1
(I2
tp2079
g12
I00
S'\xc4\xe4QCm\x8bX\xc2'
p2080
tp2081
bsVOFFICE NATIONAL DE L'ELEC
p2082
g2
(g3
(I0
tp2083
g5
tp2084
Rp2085
(I1
(I2
tp2086
g12
I00
S'\x9c\xbe\xe3\xc1\x01\xbd\x15\xc3'
p2087
tp2088
bsVWUHAN YANGLUO ELECTRIC POWER
p2089
g2
(g3
(I0
tp2090
g5
tp2091
Rp2092
(I1
(I2
tp2093
g12
I00
S'\x99=\x81B\xa8\x16\x18C'
p2094
tp2095
bsVCITIC PACIFIC LTD
p2096
g2
(g3
(I0
tp2097
g5
tp2098
Rp2099
(I1
(I2
tp2100
g12
I00
S'z\xc8|B\x93!\x0cC'
p2101
tp2102
bsVTRACTEBEL PROJECT DEVELOPMENT
p2103
g2
(g3
(I0
tp2104
g5
tp2105
Rp2106
(I1
(I2
tp2107
g12
I00
S'\x9d\xa3G\xc3r\xf6\x9a\xc1'
p2108
tp2109
bsVNEBRASKA PUBLIC POWER DIST
p2110
g2
(g3
(I0
tp2111
g5
tp2112
Rp2113
(I1
(I2
tp2114
g12
I00
S'\x1a\xb2S\xc3I\xb4\xa4A'
p2115
tp2116
bsVYUNNAN ELECTRIC POWER GROUP CO
p2117
g2
(g3
(I0
tp2118
g5
tp2119
Rp2120
(I1
(I2
tp2121
g12
I00
S'+\xc3\x8bB\x06\x12\xedB'
p2122
tp2123
bsVE.ON KERNKRAFT GMBH
p2124
g2
(g3
(I0
tp2125
g5
tp2126
Rp2127
(I1
(I2
tp2128
g12
I00
S'&\xf9m\xc2<\x11z\xc2'
p2129
tp2130
bsVGEORGIA POWER CO
p2131
g2
(g3
(I0
tp2132
g5
tp2133
Rp2134
(I1
(I2
tp2135
g12
I00
S'\x8c91\xc3\xc7\xa0\x05A'
p2136
tp2137
bsVENTERGY OPERATIONS INC
p2138
g2
(g3
(I0
tp2139
g5
tp2140
Rp2141
(I1
(I2
tp2142
g12
I00
S'\x18SE\xc3\xe3&\xc7A'
p2143
tp2144
bsVNOVA SCOTIA POWER INC
p2145
g2
(g3
(I0
tp2146
g5
tp2147
Rp2148
(I1
(I2
tp2149
g12
I00
S'^~s\xc3?\xaf\xbaB'
p2150
tp2151
bsVEAST CHINA ELECTRIC POWER CORP
p2152
g2
(g3
(I0
tp2153
g5
tp2154
Rp2155
(I1
(I2
tp2156
g12
I00
S'\xecV\x94B9{\xf2B'
p2157
tp2158
bsVENDESA ITALIA
p2159
g2
(g3
(I0
tp2160
g5
tp2161
Rp2162
(I1
(I2
tp2163
g12
I00
S'O\xf2\x8eB\xe4-\x82\xc2'
p2164
tp2165
bsS'JP'
p2166
g2
(g3
(I0
tp2167
g5
tp2168
Rp2169
(I1
(I2
tp2170
g12
I00
S'\xc0@\nC\xbd\xd1\x10B'
p2171
tp2172
bsVCONSTELLATION GENERATION GROUP
p2173
g2
(g3
(I0
tp2174
g5
tp2175
Rp2176
(I1
(I2
tp2177
g12
I00
S'v`6\xc3j\x0e\x9dA'
p2178
tp2179
bsVHUANENG POWER INTERNATIONAL
p2180
g2
(g3
(I0
tp2181
g5
tp2182
Rp2183
(I1
(I2
tp2184
g12
I00
S'\xe6\x9a\x82B\xe1f\xeeB'
p2185
tp2186
bsVBARQI TOJIK
p2187
g2
(g3
(I0
tp2188
g5
tp2189
Rp2190
(I1
(I2
tp2191
g12
I00
S'7\x96fC%d\x06B'
p2192
tp2193
bsVSOCIETA NORDELETTRICA (SONDEL)
p2194
g2
(g3
(I0
tp2195
g5
tp2196
Rp2197
(I1
(I2
tp2198
g12
I00
S']\xc8\x97B\xcfJ\xa6\xc2'
p2199
tp2200
bsS'JO'
p2201
g2
(g3
(I0
tp2202
g5
tp2203
Rp2204
(I1
(I2
tp2205
g12
I00
S'#\xf4\x10Bj\xae\xf4A'
p2206
tp2207
bsVRELIANT ENERGY WHOLESALE GROUP
p2208
g2
(g3
(I0
tp2209
g5
tp2210
Rp2211
(I1
(I2
tp2212
g12
I00
S'\xbd\xa11\xc3\xdf\x13PA'
p2213
tp2214
bsVETHIOPIAN ELECTRIC POWER CORP
p2215
g2
(g3
(I0
tp2216
g5
tp2217
Rp2218
(I1
(I2
tp2219
g12
I00
S'M\xdb\xecA\xa0pRC'
p2220
tp2221
bsVOKG AKTIEBOLAG
p2222
g2
(g3
(I0
tp2223
g5
tp2224
Rp2225
(I1
(I2
tp2226
g12
I00
S"!\xdc\x99\xc2\x91'[C"
p2227
tp2228
bsVGRANT COUNTY PUD 2
p2229
g2
(g3
(I0
tp2230
g5
tp2231
Rp2232
(I1
(I2
tp2233
g12
I00
S'\xd9\xf0N\xc3\xaaA\x94\xc1'
p2234
tp2235
bsVSHANXI ELECTRIC POWER CORP
p2236
g2
(g3
(I0
tp2237
g5
tp2238
Rp2239
(I1
(I2
tp2240
g12
I00
S'ILGBY<\x0eC'
p2241
tp2242
bsVDAYTON POWER & LIGHT CO
p2243
g2
(g3
(I0
tp2244
g5
tp2245
Rp2246
(I1
(I2
tp2247
g12
I00
S'\xab\xfa?\xc3\x8e\x13k\xc1'
p2248
tp2249
bsVKOREA HYDRO & NUCLEAR POWER CO
p2250
g2
(g3
(I0
tp2251
g5
tp2252
Rp2253
(I1
(I2
tp2254
g12
I00
S'\t\xf6\xb5B#b\xe1B'
p2255
tp2256
bsVELETROBRAS TERMONUCLEAR SA
p2257
g2
(g3
(I0
tp2258
g5
tp2259
Rp2260
(I1
(I2
tp2261
g12
I00
S'\xf6\x9a\xc7\xc2\x1fw\x0cB'
p2262
tp2263
bsVNUCLEAR MANAGEMENT CO LLC
p2264
g2
(g3
(I0
tp2265
g5
tp2266
Rp2267
(I1
(I2
tp2268
g12
I00
S'\xfc\x1d4\xc3=Jb\xc1'
p2269
tp2270
bsVBRUCE POWER
p2271
g2
(g3
(I0
tp2272
g5
tp2273
Rp2274
(I1
(I2
tp2275
g12
I00
S'\xdb\x90k\xc3\xa6\xb1\xb0B'
p2276
tp2277
bsVNATSIONALNA ELEK KOMP (NEK)
p2278
g2
(g3
(I0
tp2279
g5
tp2280
Rp2281
(I1
(I2
tp2282
g12
I00
S"\x94#'\xc2\xe1\x81\xd2\xc2"
p2283
tp2284
bsVPROGRESS ENERGY CAROLINAS
p2285
g2
(g3
(I0
tp2286
g5
tp2287
Rp2288
(I1
(I2
tp2289
g12
I00
S"j\xf87\xc3'4`A"
p2290
tp2291
bsVEURASIAN ENERGY CORP (EEC)
p2292
g2
(g3
(I0
tp2293
g5
tp2294
Rp2295
(I1
(I2
tp2296
g12
I00
S'\xc0N\x81C%\r\xe7B'
p2297
tp2298
bsVWESTERN KENTUCKY ENERGY
p2299
g2
(g3
(I0
tp2300
g5
tp2301
Rp2302
(I1
(I2
tp2303
g12
I00
S'\xe9\xc7R\xc3I\xfe\x82\xc1'
p2304
tp2305
bsVALABAMA POWER CO
p2306
g2
(g3
(I0
tp2307
g5
tp2308
Rp2309
(I1
(I2
tp2310
g12
I00
S'\xadC4\xc3lP\x81A'
p2311
tp2312
bsVELECTRICITY SUPPLY BOARD (ESB)
p2313
g2
(g3
(I0
tp2314
g5
tp2315
Rp2316
(I1
(I2
tp2317
g12
I00
S'\xf2\xc05\xc3+M\xe4B'
p2318
tp2319
bsVE.ON BENELUX
p2320
g2
(g3
(I0
tp2321
g5
tp2322
Rp2323
(I1
(I2
tp2324
g12
I00
S'aH\xee\xc1\x00C\xca\xc2'
p2325
tp2326
bsS'PK'
p2327
g2
(g3
(I0
tp2328
g5
tp2329
Rp2330
(I1
(I2
tp2331
g12
I00
S'\xb3\xb0\x8aB\xa8\x00\xf3A'
p2332
tp2333
bsVMERIDIAN ENERGY LTD
p2334
g2
(g3
(I0
tp2335
g5
tp2336
Rp2337
(I1
(I2
tp2338
g12
I00
S'~\xc2DB\xcf\xa2\xc3\xc2'
p2339
tp2340
bsVPUBLIC POWER CORP (DEI)
p2341
g2
(g3
(I0
tp2342
g5
tp2343
Rp2344
(I1
(I2
tp2345
g12
I00
S'\x9c\x8e\x18BV\xaedC'
p2346
tp2347
bsVCHUBU ELECTRIC POWER CO
p2348
g2
(g3
(I0
tp2349
g5
tp2350
Rp2351
(I1
(I2
tp2352
g12
I00
S'\xe67tC\x073\x99\xc2'
p2353
tp2354
bsVZHEJIANG JIAHUA POWER GEN CO
p2355
g2
(g3
(I0
tp2356
g5
tp2357
Rp2358
(I1
(I2
tp2359
g12
I00
S'\xb4\x19?B\x05K\x17C'
p2360
tp2361
bsVCIA MEXICANA GEN OPER (COMEGO)
p2362
g2
(g3
(I0
tp2363
g5
tp2364
Rp2365
(I1
(I2
tp2366
g12
I00
S'\xabH8\xc3\xe9\xd2\tC'
p2367
tp2368
bsVOKINAWA ELECTRIC POWER CO
p2369
g2
(g3
(I0
tp2370
g5
tp2371
Rp2372
(I1
(I2
tp2373
g12
I00
S',\xd9\x87Cu\x9f\xa7\xc2'
p2374
tp2375
bsVCENT ELET DO NORTE DO BRASIL
p2376
g2
(g3
(I0
tp2377
g5
tp2378
Rp2379
(I1
(I2
tp2380
g12
I00
S'\xedE\xcf\xc2~\xbc\xa0B'
p2381
tp2382
bsVPT PEMBANGKITAN JAWA-BALI
p2383
g2
(g3
(I0
tp2384
g5
tp2385
Rp2386
(I1
(I2
tp2387
g12
I00
S'#\xf3\x1aC\xc3.\x0c@'
p2388
tp2389
bsS'BR'
p2390
g2
(g3
(I0
tp2391
g5
tp2392
Rp2393
(I1
(I2
tp2394
g12
I00
S'}\xb3O\xc2\x94\xc2c\xc1'
p2395
tp2396
bsVENDESA CHILE
p2397
g2
(g3
(I0
tp2398
g5
tp2399
Rp2400
(I1
(I2
tp2401
g12
I00
S'\x08\x89M\xc2VN<\xc3'
p2402
tp2403
bsVSARAWAK HIDRO SDN BHD
p2404
g2
(g3
(I0
tp2405
g5
tp2406
Rp2407
(I1
(I2
tp2408
g12
I00
S'\x06\xd9\xfaB{tIC'
p2409
tp2410
bsVTIRRENO POWER SPA
p2411
g2
(g3
(I0
tp2412
g5
tp2413
Rp2414
(I1
(I2
tp2415
g12
I00
S'&\x94\xaaB\xab\xda\x94\xc2'
p2416
tp2417
bsVTAIWAN POWER CO
p2418
g2
(g3
(I0
tp2419
g5
tp2420
Rp2421
(I1
(I2
tp2422
g12
I00
S'\xe1\xfa\x01B\x93:\xa8\xc2'
p2423
tp2424
bsVSHANXI ZHANGZE ELECTRIC POWER
p2425
g2
(g3
(I0
tp2426
g5
tp2427
Rp2428
(I1
(I2
tp2429
g12
I00
S'_(kB\xf3o!C'
p2430
tp2431
bsVLIGHT-SERVICOS DE ELET SA
p2432
g2
(g3
(I0
tp2433
g5
tp2434
Rp2435
(I1
(I2
tp2436
g12
I00
S'8\x83\xeb\xc2\xcf5\xc5B'
p2437
tp2438
bsVTRACTEBEL ENERGIA SA
p2439
g2
(g3
(I0
tp2440
g5
tp2441
Rp2442
(I1
(I2
tp2443
g12
I00
S')\x8e\xd8\xc2\xdf\xbb\xaeB'
p2444
tp2445
bsVATOMIC ENERGY ORANIZ IRAN
p2446
g2
(g3
(I0
tp2447
g5
tp2448
Rp2449
(I1
(I2
tp2450
g12
I00
S'/\xde,\xc2\x02(\xe5B'
p2451
tp2452
bsVENTERGY LOUISIANA INC
p2453
g2
(g3
(I0
tp2454
g5
tp2455
Rp2456
(I1
(I2
tp2457
g12
I00
S'\x05\xc3C\xc3\x1d\xda\x8dA'
p2458
tp2459
bsVCOGENTRIX ENERGY INC
p2460
g2
(g3
(I0
tp2461
g5
tp2462
Rp2463
(I1
(I2
tp2464
g12
I00
S'\x85\xe0%\xc3u8\xcbA'
p2465
tp2466
bsVEXELON GENERATION CO LLC
p2467
g2
(g3
(I0
tp2468
g5
tp2469
Rp2470
(I1
(I2
tp2471
g12
I00
S'L\x075\xc3\xed&-A'
p2472
tp2473
bsVBIHAR STATE ELEC BOARD
p2474
g2
(g3
(I0
tp2475
g5
tp2476
Rp2477
(I1
(I2
tp2478
g12
I00
S'\xaaYjC\x0fm\x98B'
p2479
tp2480
bsVSHAHID ABBASPOOR POWER GEN CO
p2481
g2
(g3
(I0
tp2482
g5
tp2483
Rp2484
(I1
(I2
tp2485
g12
I00
S'7\xa65\xc2`-"C'
p2486
tp2487
bsS'PT'
p2488
g2
(g3
(I0
tp2489
g5
tp2490
Rp2491
(I1
(I2
tp2492
g12
I00
S']\x97\x03\xc1x\x99\x1dB'
p2493
tp2494
bsVUNION ELECTRICA FENOSA SA
p2495
g2
(g3
(I0
tp2496
g5
tp2497
Rp2498
(I1
(I2
tp2499
g12
I00
S'\xe4\xf4\xe1B\xad6i\xc1'
p2500
tp2501
bsVOGLETHORPE POWER CORP
p2502
g2
(g3
(I0
tp2503
g5
tp2504
Rp2505
(I1
(I2
tp2506
g12
I00
S'\xb6\x0cO\xc3\x18\xbec\xc1'
p2507
tp2508
bsVNUCLEOELECTRICA ARGENTINA SA
p2509
g2
(g3
(I0
tp2510
g5
tp2511
Rp2512
(I1
(I2
tp2513
g12
I00
S'\x04\xace\xc3W\x07\xe3\xc2'
p2514
tp2515
bsVSOC TUNISIENNE ELEC GAZ
p2516
g2
(g3
(I0
tp2517
g5
tp2518
Rp2519
(I1
(I2
tp2520
g12
I00
S'0\xad\x1a\xc3\x11,\xfeB'
p2521
tp2522
bsVINTERGEN ENERJI LTD SIRKETI
p2523
g2
(g3
(I0
tp2524
g5
tp2525
Rp2526
(I1
(I2
tp2527
g12
I00
S'\x1f2\xd3A=\xed`C'
p2528
tp2529
bsVKORP ELEKTROENERG SHQIPETARE
p2530
g2
(g3
(I0
tp2531
g5
tp2532
Rp2533
(I1
(I2
tp2534
g12
I00
S'\x85\xeaW\xc2\x8ambC'
p2535
tp2536
bsVHOKURIKU ELECTRIC POWER CO
p2537
g2
(g3
(I0
tp2538
g5
tp2539
Rp2540
(I1
(I2
tp2541
g12
I00
S'\xdc\x98VCv|\xb4\xc2'
p2542
tp2543
bsS'PE'
p2544
g2
(g3
(I0
tp2545
g5
tp2546
Rp2547
(I1
(I2
tp2548
g12
I00
S'\xc2\x07\x96\xc2\x1b\n\x13\xc1'
p2549
tp2550
bsS'KW'
p2551
g2
(g3
(I0
tp2552
g5
tp2553
Rp2554
(I1
(I2
tp2555
g12
I00
S'T\xed=BH~\xeaA'
p2556
tp2557
bsS'PH'
p2558
g2
(g3
(I0
tp2559
g5
tp2560
Rp2561
(I1
(I2
tp2562
g12
I00
S'L\x8c\xf3BV\x13NA'
p2563
tp2564
bsVPORTLAND GENERAL ELEC CO
p2565
g2
(g3
(I0
tp2566
g5
tp2567
Rp2568
(I1
(I2
tp2569
g12
I00
S'-\xa0:\xc3&\xe1\x9c\xc1'
p2570
tp2571
bsS'PL'
p2572
g2
(g3
(I0
tp2573
g5
tp2574
Rp2575
(I1
(I2
tp2576
g12
I00
S'=)\x99A\x81\xadOB'
p2577
tp2578
bsVELEKTROWNIA BELCHATOW SA
p2579
g2
(g3
(I0
tp2580
g5
tp2581
Rp2582
(I1
(I2
tp2583
g12
I00
S'\xabH\xa5\xc21\xcc\xb5\xc2'
p2584
tp2585
bsVHRVATSKA ELEKTROPRIVREDA (HEP)
p2586
g2
(g3
(I0
tp2587
g5
tp2588
Rp2589
(I1
(I2
tp2590
g12
I00
S'\x8fGF\xc2Il;C'
p2591
tp2592
bsVPSEG FOSSIL
p2593
g2
(g3
(I0
tp2594
g5
tp2595
Rp2596
(I1
(I2
tp2597
g12
I00
S'G45\xc3\x13\xe0\xc2@'
p2598
tp2599
bsVCONECTIV ENERGY HOLDING CO
p2600
g2
(g3
(I0
tp2601
g5
tp2602
Rp2603
(I1
(I2
tp2604
g12
I00
S'\xf0\x0eJ\xc3N::\xc1'
p2605
tp2606
bsVENTERGY NUCLEAR
p2607
g2
(g3
(I0
tp2608
g5
tp2609
Rp2610
(I1
(I2
tp2611
g12
I00
S'\x1a;P\xc33\x8d\xb4A'
p2612
tp2613
bsVALUMINUM BAHRAIN [ALBA]
p2614
g2
(g3
(I0
tp2615
g5
tp2616
Rp2617
(I1
(I2
tp2618
g12
I00
S'\x89}\x1dC\xab;:C'
p2619
tp2620
bsVCENTRENERGO
p2621
g2
(g3
(I0
tp2622
g5
tp2623
Rp2624
(I1
(I2
tp2625
g12
I00
S'\xd9\x17\xbcB\xedM\xd3\xc2'
p2626
tp2627
bsVOMSKENERGO
p2628
g2
(g3
(I0
tp2629
g5
tp2630
Rp2631
(I1
(I2
tp2632
g12
I00
S'\xbbU\x82C\x022{\xc1'
p2633
tp2634
bsVDYNEGY MIDWEST GENERATION
p2635
g2
(g3
(I0
tp2636
g5
tp2637
Rp2638
(I1
(I2
tp2639
g12
I00
S'_\xdaF\xc3\xc1\x97^A'
p2640
tp2641
bsVJ-POWER
p2642
g2
(g3
(I0
tp2643
g5
tp2644
Rp2645
(I1
(I2
tp2646
g12
I00
S'-\xd6~C\xc7%\x98\xc2'
p2647
tp2648
bsVKHORASAN REGIONAL ELEC POWER
p2649
g2
(g3
(I0
tp2650
g5
tp2651
Rp2652
(I1
(I2
tp2653
g12
I00
S'id)\xc2\xd3J\xf2B'
p2654
tp2655
bsVTRANSALTA UTILITIES
p2656
g2
(g3
(I0
tp2657
g5
tp2658
Rp2659
(I1
(I2
tp2660
g12
I00
S'\xee\xd7e\xc308\xc6B'
p2661
tp2662
bsVMT HOPE HYDRO INC
p2663
g2
(g3
(I0
tp2664
g5
tp2665
Rp2666
(I1
(I2
tp2667
g12
I00
S'\x86\xe4X\xc3F\xe3 \xc1'
p2668
tp2669
bsVUS BUREAU OF RECLAMATION
p2670
g2
(g3
(I0
tp2671
g5
tp2672
Rp2673
(I1
(I2
tp2674
g12
I00
S'\x14/<\xc3\xc1\x1cFA'
p2675
tp2676
bsVCINCINNATI GAS & ELEC CO
p2677
g2
(g3
(I0
tp2678
g5
tp2679
Rp2680
(I1
(I2
tp2681
g12
I00
S'\x9a\xf76\xc3LG\xae\xc0'
p2682
tp2683
bsVFURNAS CENTRAIS ELETRICAS SA
p2684
g2
(g3
(I0
tp2685
g5
tp2686
Rp2687
(I1
(I2
tp2688
g12
I00
S'\xac\xd5\xe1\xc2ru\x98B'
p2689
tp2690
bsVPPL MONTANA
p2691
g2
(g3
(I0
tp2692
g5
tp2693
Rp2694
(I1
(I2
tp2695
g12
I00
S'\xf49@\xc3OS\xa9\xc1'
p2696
tp2697
bsVKOREA SOUTH-EAST POWER CO
p2698
g2
(g3
(I0
tp2699
g5
tp2700
Rp2701
(I1
(I2
tp2702
g12
I00
S'sG\x98B\x99o\xe4B'
p2703
tp2704
bsVISAGEN SA
p2705
g2
(g3
(I0
tp2706
g5
tp2707
Rp2708
(I1
(I2
tp2709
g12
I00
S'\xcd2\xc1\xc2V\x05\xe6B'
p2710
tp2711
bsVDNIESTER HPSS
p2712
g2
(g3
(I0
tp2713
g5
tp2714
Rp2715
(I1
(I2
tp2716
g12
I00
S'wx\xd0Bls\x00\xc3'
p2717
tp2718
bsVPUBLIC SERVICE COLORADO
p2719
g2
(g3
(I0
tp2720
g5
tp2721
Rp2722
(I1
(I2
tp2723
g12
I00
S'%\x90J\xc3!\xc6(A'
p2724
tp2725
bsVKHUZESTAN REGIONAL ELEC POWER
p2726
g2
(g3
(I0
tp2727
g5
tp2728
Rp2729
(I1
(I2
tp2730
g12
I00
S'\xce%\xc6\xc1Tb"C'
p2731
tp2732
bsVENDESA GENERACION
p2733
g2
(g3
(I0
tp2734
g5
tp2735
Rp2736
(I1
(I2
tp2737
g12
I00
S'<\xd0\xc6B\x84\xbc\xfd\xc1'
p2738
tp2739
bsVPSI ENERGY INC
p2740
g2
(g3
(I0
tp2741
g5
tp2742
Rp2743
(I1
(I2
tp2744
g12
I00
S'\xab\xa0:\xc3\xd1\x95\xfc\xc0'
p2745
tp2746
bsVDOMINION ENERGY
p2747
g2
(g3
(I0
tp2748
g5
tp2749
Rp2750
(I1
(I2
tp2751
g12
I00
S'E\x9f1\xc3\xf0\xc3v@'
p2752
tp2753
bsVFIRSTENERGY NUC OPERATING
p2754
g2
(g3
(I0
tp2755
g5
tp2756
Rp2757
(I1
(I2
tp2758
g12
I00
S'\x95\xd56\xc3b\xa2\x88\xc1'
p2759
tp2760
bsVKOREA ELECTRIC POWER CORP
p2761
g2
(g3
(I0
tp2762
g5
tp2763
Rp2764
(I1
(I2
tp2765
g12
I00
S'\x9e\xce7Ca\x970C'
p2766
tp2767
bsVNATIONAL THERMAL POWER CORP
p2768
g2
(g3
(I0
tp2769
g5
tp2770
Rp2771
(I1
(I2
tp2772
g12
I00
S'A\xd1QC\xb0\xc2\x88B'
p2773
tp2774
bsVPOWER COMPANY NO 1
p2775
g2
(g3
(I0
tp2776
g5
tp2777
Rp2778
(I1
(I2
tp2779
g12
I00
S'\xf0\x10\xfdA\xe8}\x03\xc3'
p2780
tp2781
bsVSTP NUCLEAR OPERATING CO
p2782
g2
(g3
(I0
tp2783
g5
tp2784
Rp2785
(I1
(I2
tp2786
g12
I00
S'9MU\xc3<\xcf\x06\xc1'
p2787
tp2788
bsVELEC GEN AUTH THAILAND (EGAT)
p2789
g2
(g3
(I0
tp2790
g5
tp2791
Rp2792
(I1
(I2
tp2793
g12
I00
S'\xd5d:C \x12\xf9\xc2'
p2794
tp2795
bsVCHINA RESOURCES POWER HOLDINGS
p2796
g2
(g3
(I0
tp2797
g5
tp2798
Rp2799
(I1
(I2
tp2800
g12
I00
S'\xef\xdc\x91B\x1bS\x07C'
p2801
tp2802
bsVCENT ELETRICAS BRASILEIRA SA
p2803
g2
(g3
(I0
tp2804
g5
tp2805
Rp2806
(I1
(I2
tp2807
g12
I00
S'\xb7\xab\xd2\xc2/\xd3\x8cB'
p2808
tp2809
bsVGUOHUA ELECTRIC POWER CORP
p2810
g2
(g3
(I0
tp2811
g5
tp2812
Rp2813
(I1
(I2
tp2814
g12
I00
S'\xe0\xdc\x8fB\xb2\xe2\xfaB'
p2815
tp2816
bsVGKKW NECKAR GMBH (GKN)
p2817
g2
(g3
(I0
tp2818
g5
tp2819
Rp2820
(I1
(I2
tp2821
g12
I00
S'zg\xa6\xc2/\xec\x8d\xc2'
p2822
tp2823
bsVTUAS POWER
p2824
g2
(g3
(I0
tp2825
g5
tp2826
Rp2827
(I1
(I2
tp2828
g12
I00
S'\x11\x0b\x83B\x80\\\xf1\xc2'
p2829
tp2830
bsVINTERGEN (UK) LTD
p2831
g2
(g3
(I0
tp2832
g5
tp2833
Rp2834
(I1
(I2
tp2835
g12
I00
S'E\xc3\t\xc1`Q\xdb\xc1'
p2836
tp2837
bsVKYIVENERGO
p2838
g2
(g3
(I0
tp2839
g5
tp2840
Rp2841
(I1
(I2
tp2842
g12
I00
S'\x80\x94\xaaB\xd8\x9a\xe2\xc2'
p2843
tp2844
bsVQINGHAI ELECTRIC POWER CORP
p2845
g2
(g3
(I0
tp2846
g5
tp2847
Rp2848
(I1
(I2
tp2849
g12
I00
S'\xdf\x10yB\x1d$\x1dC'
p2850
tp2851
bsS'DE'
p2852
g2
(g3
(I0
tp2853
g5
tp2854
Rp2855
(I1
(I2
tp2856
g12
I00
S"s9'A\xab\xa9LB"
p2857
tp2858
bsVNING LONG POWER GENERATING CO
p2859
g2
(g3
(I0
tp2860
g5
tp2861
Rp2862
(I1
(I2
tp2863
g12
I00
S'\x07dIBT\x10\x1cC'
p2864
tp2865
bsVDONBASENERGO
p2866
g2
(g3
(I0
tp2867
g5
tp2868
Rp2869
(I1
(I2
tp2870
g12
I00
S'\x81\xa8\xbaB\xa6\x91\xf2\xc2'
p2871
tp2872
bsVCENTRAL ELECTRICITY GEN CO
p2873
g2
(g3
(I0
tp2874
g5
tp2875
Rp2876
(I1
(I2
tp2877
g12
I00
S'\xf2\x80\xb3\xc0[I^C'
p2878
tp2879
bsS'CL'
p2880
g2
(g3
(I0
tp2881
g5
tp2882
Rp2883
(I1
(I2
tp2884
g12
I00
S'\x00\x16\x8f\xc2Z\xb3\x0e\xc2'
p2885
tp2886
bsS'CA'
p2887
g2
(g3
(I0
tp2888
g5
tp2889
Rp2890
(I1
(I2
tp2891
g12
I00
S'\x8c\xb1\xd4\xc2\x7f\x85`B'
p2892
tp2893
bsS'CG'
p2894
g2
(g3
(I0
tp2895
g5
tp2896
Rp2897
(I1
(I2
tp2898
g12
I00
S'\x17>}AV~i\xbe'
p2899
tp2900
bsVKERNKRAFTWERK GREIFSWALD GMBH
p2901
g2
(g3
(I0
tp2902
g5
tp2903
Rp2904
(I1
(I2
tp2905
g12
I00
S'Zq\x91\xc2\xefF\x92\xc2'
p2906
tp2907
bsS'CZ'
p2908
g2
(g3
(I0
tp2909
g5
tp2910
Rp2911
(I1
(I2
tp2912
g12
I00
S'A\x91wA\x1dEGB'
p2913
tp2914
bsVUTTAR PRADESH RAJYA UTPADAN
p2915
g2
(g3
(I0
tp2916
g5
tp2917
Rp2918
(I1
(I2
tp2919
g12
I00
S'wn\\C\x18\xa8\x8fB'
p2920
tp2921
bsVSOUTH CHINA ELEC POWER JV
p2922
g2
(g3
(I0
tp2923
g5
tp2924
Rp2925
(I1
(I2
tp2926
g12
I00
S'\x14\x0ciBF\xf2\x08C'
p2927
tp2928
bsS'CR'
p2929
g2
(g3
(I0
tp2930
g5
tp2931
Rp2932
(I1
(I2
tp2933
g12
I00
S'\xc1\x81\xa7\xc2\x90\xfb\x1bA'
p2934
tp2935
bsS'CU'
p2936
g2
(g3
(I0
tp2937
g5
tp2938
Rp2939
(I1
(I2
tp2940
g12
I00
S'\xf5\x8f\x9b\xc2\x8f,\xacA'
p2941
tp2942
bsS'RO'
p2943
g2
(g3
(I0
tp2944
g5
tp2945
Rp2946
(I1
(I2
tp2947
g12
I00
S'\xed\xbb\xc7A\xcc\xc57B'
p2948
tp2949
bsVNORTH CHINA ELECTRIC POWER
p2950
g2
(g3
(I0
tp2951
g5
tp2952
Rp2953
(I1
(I2
tp2954
g12
I00
S'g\xf4wBJw\xf8B'
p2955
tp2956
bsVAMERICAN NATIONAL POWER
p2957
g2
(g3
(I0
tp2958
g5
tp2959
Rp2960
(I1
(I2
tp2961
g12
I00
S'\xb0\x03M\xc3P\xfe\x9dA'
p2962
tp2963
bsVTATENERGO
p2964
g2
(g3
(I0
tp2965
g5
tp2966
Rp2967
(I1
(I2
tp2968
g12
I00
S'\xd6\xfc_C\xd5_\xf6\xc1'
p2969
tp2970
bsVKOREA SOUTHERN POWER (KOSPO)
p2971
g2
(g3
(I0
tp2972
g5
tp2973
Rp2974
(I1
(I2
tp2975
g12
I00
S'\xeb\xa0\x07C\x8cWBC'
p2976
tp2977
bsVELEKTROSTOPANSTVO MAKEDONIJA
p2978
g2
(g3
(I0
tp2979
g5
tp2980
Rp2981
(I1
(I2
tp2982
g12
I00
S'\xf7NU\xc2\xb1\xeekC'
p2983
tp2984
bsVSANTEE COOPER
p2985
g2
(g3
(I0
tp2986
g5
tp2987
Rp2988
(I1
(I2
tp2989
g12
I00
S'\x00\xfdG\xc3\x8aU\x9d?'
p2990
tp2991
bsVPACIFICORP
p2992
g2
(g3
(I0
tp2993
g5
tp2994
Rp2995
(I1
(I2
tp2996
g12
I00
S'e\x871\xc3\xd0\x8f\xcf\xbd'
p2997
tp2998
bsVRELIANCE ENERGY GENERATION LTD
p2999
g2
(g3
(I0
tp3000
g5
tp3001
Rp3002
(I1
(I2
tp3003
g12
I00
S'\xb2\xad4C\r\xc0\xbdB'
p3004
tp3005
bsVDNIPROENERGO
p3006
g2
(g3
(I0
tp3007
g5
tp3008
Rp3009
(I1
(I2
tp3010
g12
I00
S'G\xf5\xe0B\xf5\x1c\xbb\xc2'
p3011
tp3012
bsVMP POWER GENERATING CO LTD
p3013
g2
(g3
(I0
tp3014
g5
tp3015
Rp3016
(I1
(I2
tp3017
g12
I00
S'L\xe7BCD\x06\xbbB'
p3018
tp3019
bsVJHARKHAND STATE ELEC BOARD
p3020
g2
(g3
(I0
tp3021
g5
tp3022
Rp3023
(I1
(I2
tp3024
g12
I00
S'\xbc\x078C\x95$\xadB'
p3025
tp3026
bsVHUBEI QINGJIANG HYDRO DEV CO
p3027
g2
(g3
(I0
tp3028
g5
tp3029
Rp3030
(I1
(I2
tp3031
g12
I00
S'\xb8\xdckB\xe0\x13\x16C'
p3032
tp3033
bsVSOC NAT D'ELEC THERM [SNET]
p3034
g2
(g3
(I0
tp3035
g5
tp3036
Rp3037
(I1
(I2
tp3038
g12
I00
S'(\x7f\x8a\xc2\x1e\x81\xe9B'
p3039
tp3040
bsVCHEUNG KONG INFRASTRUCTURE
p3041
g2
(g3
(I0
tp3042
g5
tp3043
Rp3044
(I1
(I2
tp3045
g12
I00
S'Q\x19sB\xfeb\x11C'
p3046
tp3047
bsVWUJIANG HYDROPOWER DEV CO LTD
p3048
g2
(g3
(I0
tp3049
g5
tp3050
Rp3051
(I1
(I2
tp3052
g12
I00
S'\x91\xa3\x97BG\xf9\x01C'
p3053
tp3054
bsVZIMBABWE POWER CO (ZPC)
p3055
g2
(g3
(I0
tp3056
g5
tp3057
Rp3058
(I1
(I2
tp3059
g12
I00
S'\xb6\n\x1d\xc1\tBH\xc3'
p3060
tp3061
bsVENTERGY ARKANSAS INC
p3062
g2
(g3
(I0
tp3063
g5
tp3064
Rp3065
(I1
(I2
tp3066
g12
I00
S'\xd3\x0bU\xc3k8\x94\xc0'
p3067
tp3068
bsVKOREA MIDLAND POWER (KOMIPO)
p3069
g2
(g3
(I0
tp3070
g5
tp3071
Rp3072
(I1
(I2
tp3073
g12
I00
S'\x82\xb6\x03C;!=C'
p3074
tp3075
bsVWEST BENGAL STATE ELEC BOARD
p3076
g2
(g3
(I0
tp3077
g5
tp3078
Rp3079
(I1
(I2
tp3080
g12
I00
S'\xa9etCM\xc2\x89B'
p3081
tp3082
bsVSATLUJ JAL VIDYUT NIGAM LTD
p3083
g2
(g3
(I0
tp3084
g5
tp3085
Rp3086
(I1
(I2
tp3087
g12
I00
S'\xfa\x07rC\xdf\xc2\x97B'
p3088
tp3089
bsVMANITOBA HYDRO
p3090
g2
(g3
(I0
tp3091
g5
tp3092
Rp3093
(I1
(I2
tp3094
g12
I00
S'\xc4MX\xc3\xe1r\xbdB'
p3095
tp3096
bsVUNION ELECTRICA (UNE)
p3097
g2
(g3
(I0
tp3098
g5
tp3099
Rp3100
(I1
(I2
tp3101
g12
I00
S'yXK\xc3\xeb\xd3!C'
p3102
tp3103
bsVTEHREMPOSTAVKA
p3104
g2
(g3
(I0
tp3105
g5
tp3106
Rp3107
(I1
(I2
tp3108
g12
I00
S'\xf5\xe5\xe2B\x1b~\xd0\xc2'
p3109
tp3110
bsVCIA PORTUGESA PRODUCAO ELEC
p3111
g2
(g3
(I0
tp3112
g5
tp3113
Rp3114
(I1
(I2
tp3115
g12
I00
S'\x04\x98\xcd\xc1\x00\xf8\x05\xc3'
p3116
tp3117
bsVKEYSPAN GENERATION
p3118
g2
(g3
(I0
tp3119
g5
tp3120
Rp3121
(I1
(I2
tp3122
g12
I00
S'\x18\xfd<\xc3\xc7}\x9c\xc0'
p3123
tp3124
bsVHEILONGJIANG ELECTRIC POWER CO
p3125
g2
(g3
(I0
tp3126
g5
tp3127
Rp3128
(I1
(I2
tp3129
g12
I00
S'iwUBk\x8b\x17C'
p3130
tp3131
bsVRWE POWER
p3132
g2
(g3
(I0
tp3133
g5
tp3134
Rp3135
(I1
(I2
tp3136
g12
I00
S'M\xc8d\xc2e\x0bZ\xc2'
p3137
tp3138
bsVENERGY NORTHWEST
p3139
g2
(g3
(I0
tp3140
g5
tp3141
Rp3142
(I1
(I2
tp3143
g12
I00
S'nA\\\xc3`!1\xc0'
p3144
tp3145
bsVBAKHTAR REGIONAL ELEC POWER CO
p3146
g2
(g3
(I0
tp3147
g5
tp3148
Rp3149
(I1
(I2
tp3150
g12
I00
S'{\xc8$\xc2\xdf\xb5\x08C'
p3151
tp3152
bsVZES ELEK PATNOW-ADAMOW-KONIN
p3153
g2
(g3
(I0
tp3154
g5
tp3155
Rp3156
(I1
(I2
tp3157
g12
I00
S'\xfc\xc0\xb8\xc2c\x1b\xa8\xc2'
p3158
tp3159
bsVCOLUMBUS SOUTHERN POWER CO
p3160
g2
(g3
(I0
tp3161
g5
tp3162
Rp3163
(I1
(I2
tp3164
g12
I00
S'f\xd8Y\xc3C\x9byA'
p3165
tp3166
bsS'VE'
p3167
g2
(g3
(I0
tp3168
g5
tp3169
Rp3170
(I1
(I2
tp3171
g12
I00
S'\xf1-\x85\xc2\\\x8f\xcd@'
p3172
tp3173
bsVTURKIYE ELEK URETIM ILETIM
p3174
g2
(g3
(I0
tp3175
g5
tp3176
Rp3177
(I1
(I2
tp3178
g12
I00
S'[\xce\x0fB\x19\x87JC'
p3179
tp3180
bsS'IQ'
p3181
g2
(g3
(I0
tp3182
g5
tp3183
Rp3184
(I1
(I2
tp3185
g12
I00
S'\x98\xb7.B\x8c\xe4\x04B'
p3186
tp3187
bsS'IS'
p3188
g2
(g3
(I0
tp3189
g5
tp3190
Rp3191
(I1
(I2
tp3192
g12
I00
S'\xac*\x98\xc1\x15\xed\x81B'
p3193
tp3194
bsVNEW YORK POWER AUTHORITY
p3195
g2
(g3
(I0
tp3196
g5
tp3197
Rp3198
(I1
(I2
tp3199
g12
I00
S'X\xd9/\xc3\xca@\xf1\xc0'
p3200
tp3201
bsS'IT'
p3202
g2
(g3
(I0
tp3203
g5
tp3204
Rp3205
(I1
(I2
tp3206
g12
I00
S"\xfd\x13IA\xde|'B"
p3207
tp3208
bsS'VN'
p3209
g2
(g3
(I0
tp3210
g5
tp3211
Rp3212
(I1
(I2
tp3213
g12
I00
S'\xed\x8d\xd8B\xe5\xee`A'
p3214
tp3215
bsVCLECO POWER LLC
p3216
g2
(g3
(I0
tp3217
g5
tp3218
Rp3219
(I1
(I2
tp3220
g12
I00
S'\xb9&K\xc3\xb8`~\xc1'
p3221
tp3222
bsVCHINA POWER INVESTMENT CORP
p3223
g2
(g3
(I0
tp3224
g5
tp3225
Rp3226
(I1
(I2
tp3227
g12
I00
S'i5\x86B7,\xf8B'
p3228
tp3229
bsS'IL'
p3230
g2
(g3
(I0
tp3231
g5
tp3232
Rp3233
(I1
(I2
tp3234
g12
I00
S'\rh\x0bBP^\xf8A'
p3235
tp3236
bsVSC HIDROELECTRICA SA
p3237
g2
(g3
(I0
tp3238
g5
tp3239
Rp3240
(I1
(I2
tp3241
g12
I00
S'V,;\xc2\x96\xdcEC'
p3242
tp3243
bsS'IN'
p3244
g2
(g3
(I0
tp3245
g5
tp3246
Rp3247
(I1
(I2
tp3248
g12
I00
S'\xff\xec\x9dB\xdd\xbf\xa4A'
p3249
tp3250
bsS'IE'
p3251
g2
(g3
(I0
tp3252
g5
tp3253
Rp3254
(I1
(I2
tp3255
g12
I00
S'\xf9\xe6\x03\xc1\xd2\xa6UB'
p3256
tp3257
bsS'ID'
p3258
g2
(g3
(I0
tp3259
g5
tp3260
Rp3261
(I1
(I2
tp3262
g12
I00
S'\xb8\xd7\xe3B\xed\rJ\xbf'
p3263
tp3264
bsVDABHOL POWER CO
p3265
g2
(g3
(I0
tp3266
g5
tp3267
Rp3268
(I1
(I2
tp3269
g12
I00
S'<\xc27C~\xac\xd5B'
p3270
tp3271
bsVTAVANIR CORP
p3272
g2
(g3
(I0
tp3273
g5
tp3274
Rp3275
(I1
(I2
tp3276
g12
I00
S'\\\xa2\xaa\xc1yB\x15C'
p3277
tp3278
bsVENERGOATOM
p3279
g2
(g3
(I0
tp3280
g5
tp3281
Rp3282
(I1
(I2
tp3283
g12
I00
S'\x92\xa4\xc5B\x1b\x83\xba\xc2'
p3284
tp3285
bsVELEC GEN PUBLIC CO (EGCO)
p3286
g2
(g3
(I0
tp3287
g5
tp3288
Rp3289
(I1
(I2
tp3290
g12
I00
S';\xdaZC\x11\x13\x05\xc3'
p3291
tp3292
bsVVOLZHSKAYA (CONGRESS) HPS
p3293
g2
(g3
(I0
tp3294
g5
tp3295
Rp3296
(I1
(I2
tp3297
g12
I00
S'\xb0\x1bMCc\r\xf8\xc1'
p3298
tp3299
bsS'MX'
p3300
g2
(g3
(I0
tp3301
g5
tp3302
Rp3303
(I1
(I2
tp3304
g12
I00
S'\x07\x1b\xcd\xc2u\x13\xbdA'
p3305
tp3306
bsVELECTRABEL ENERGY
p3307
g2
(g3
(I0
tp3308
g5
tp3309
Rp3310
(I1
(I2
tp3311
g12
I00
S'\xbc\xad\x8fB<\x90\x10\xc2'
p3312
tp3313
bsVARMENERGO
p3314
g2
(g3
(I0
tp3315
g5
tp3316
Rp3317
(I1
(I2
tp3318
g12
I00
S'\x1ctv\xc2\xe1\x0f9C'
p3319
tp3320
bsS'MZ'
p3321
g2
(g3
(I0
tp3322
g5
tp3323
Rp3324
(I1
(I2
tp3325
g12
I00
S'F\x1e\x0eBXS\x95\xc1'
p3326
tp3327
bsS'BD'
p3328
g2
(g3
(I0
tp3329
g5
tp3330
Rp3331
(I1
(I2
tp3332
g12
I00
S'q\xb6\xb4B\xdez\xbdA'
p3333
tp3334
bsS'BE'
p3335
g2
(g3
(I0
tp3336
g5
tp3337
Rp3338
(I1
(I2
tp3339
g12
I00
S'\xb7\t\x8f@\xfb\x03JB'
p3340
tp3341
bsS'BG'
p3342
g2
(g3
(I0
tp3343
g5
tp3344
Rp3345
(I1
(I2
tp3346
g12
I00
S'\xfb\xe2\xcbA\x7f\xef*B'
p3347
tp3348
bsVPT PAITON ENERGY CO
p3349
g2
(g3
(I0
tp3350
g5
tp3351
Rp3352
(I1
(I2
tp3353
g12
I00
S'\xe0\xec\x05CA\x1d\xf7B'
p3354
tp3355
bsS'BA'
p3356
g2
(g3
(I0
tp3357
g5
tp3358
Rp3359
(I1
(I2
tp3360
g12
I00
S'\xbfn\x8dA\xde\xa9/B'
p3361
tp3362
bsVNORTH EASTERN ELECTRIC POWER
p3363
g2
(g3
(I0
tp3364
g5
tp3365
Rp3366
(I1
(I2
tp3367
g12
I00
S'\xc6<bCdg\x80B'
p3368
tp3369
bsS'BH'
p3370
g2
(g3
(I0
tp3371
g5
tp3372
Rp3373
(I1
(I2
tp3374
g12
I00
S'\x14\x8dJB}q\xcfA'
p3375
tp3376
bsVCPFL GERACAO
p3377
g2
(g3
(I0
tp3378
g5
tp3379
Rp3380
(I1
(I2
tp3381
g12
I00
S'|v\xec\xc2<\xac\xa9B'
p3382
tp3383
bsVPROGRESS ENERGY FLORIDA
p3384
g2
(g3
(I0
tp3385
g5
tp3386
Rp3387
(I1
(I2
tp3388
g12
I00
S'|\xbb?\xc3\xfb\xc5\x13A'
p3389
tp3390
bsVIRAN WATER & POWER RES DEV CO
p3391
g2
(g3
(I0
tp3392
g5
tp3393
Rp3394
(I1
(I2
tp3395
g12
I00
S'M+K\xc1rz"C'
p3396
tp3397
bsVKERALA STATE ELECTRICITY BOARD
p3398
g2
(g3
(I0
tp3399
g5
tp3400
Rp3401
(I1
(I2
tp3402
g12
I00
S'#\x9anC\x07\x9a\xbeB'
p3403
tp3404
bsS'BY'
p3405
g2
(g3
(I0
tp3406
g5
tp3407
Rp3408
(I1
(I2
tp3409
g12
I00
S'\x8a\xa0\xdfA\xd8\xd6VB'
p3410
tp3411
bsVSTADTWERKE MUNCHEN
p3412
g2
(g3
(I0
tp3413
g5
tp3414
Rp3415
(I1
(I2
tp3416
g12
I00
S'\xd2\xec\x9a\xc2p\xae\x9e\xc2'
p3417
tp3418
bsVSAUDI ELECTRICITY CO
p3419
g2
(g3
(I0
tp3420
g5
tp3421
Rp3422
(I1
(I2
tp3423
g12
I00
S'\x9f\x0fS\xc295\xb6B'
p3424
tp3425
bsVENTERGY GULF STATES INC
p3426
g2
(g3
(I0
tp3427
g5
tp3428
Rp3429
(I1
(I2
tp3430
g12
I00
S'\xa0h@\xc3\xc1L\x1e\xc0'
p3431
tp3432
bsVMACQUARIE GENERATION
p3433
g2
(g3
(I0
tp3434
g5
tp3435
Rp3436
(I1
(I2
tp3437
g12
I00
S'jb\xde@\x96k\x8c\xc2'
p3438
tp3439
bsVELEKTROWNIA OPOLE SA
p3440
g2
(g3
(I0
tp3441
g5
tp3442
Rp3443
(I1
(I2
tp3444
g12
I00
S'2\xfe\xc9\xc2s\xe0\xa6\xc2'
p3445
tp3446
bsVE.ON ENERGIE AG
p3447
g2
(g3
(I0
tp3448
g5
tp3449
Rp3450
(I1
(I2
tp3451
g12
I00
S'NT\x85\xc2\xa3\x8fJ\xc2'
p3452
tp3453
bsS'IR'
p3454
g2
(g3
(I0
tp3455
g5
tp3456
Rp3457
(I1
(I2
tp3458
g12
I00
S'\x8f\xc0VB.\xb6\x01B'
p3459
tp3460
bsVCLP GROUP
p3461
g2
(g3
(I0
tp3462
g5
tp3463
Rp3464
(I1
(I2
tp3465
g12
I00
S'z\xcdPB\x97d\xfeB'
p3466
tp3467
bsVCOLBUN SA
p3468
g2
(g3
(I0
tp3469
g5
tp3470
Rp3471
(I1
(I2
tp3472
g12
I00
S'\xd6\xd0\xa9A\x16\x93,\xc3'
p3473
tp3474
bsVTEHRI HYDRO DEVELOPMENT CORP
p3475
g2
(g3
(I0
tp3476
g5
tp3477
Rp3478
(I1
(I2
tp3479
g12
I00
S'\n\xefcC(\x8c\xa6B'
p3480
tp3481
bsVYELLOW RIVER UPSTREAM HYDRO
p3482
g2
(g3
(I0
tp3483
g5
tp3484
Rp3485
(I1
(I2
tp3486
g12
I00
S'U\x92\x9cB\x8a\xce\xf8B'
p3487
tp3488
bsVOKLAHOMA GAS & ELEC CO
p3489
g2
(g3
(I0
tp3490
g5
tp3491
Rp3492
(I1
(I2
tp3493
g12
I00
S'\x97EE\xc3t\xd1\x1aA'
p3494
tp3495
bsVTENNESSEE VALLEY AUTH
p3496
g2
(g3
(I0
tp3497
g5
tp3498
Rp3499
(I1
(I2
tp3500
g12
I00
S'\x04)9\xc3\xcd\x96\x0eA'
p3501
tp3502
bsVSHIKOKU ELECTRIC POWER CO
p3503
g2
(g3
(I0
tp3504
g5
tp3505
Rp3506
(I1
(I2
tp3507
g12
I00
S'\xa2\x16UC\x90(\xcf\xc2'
p3508
tp3509
bsVCHONGQING MUNICIPAL GOVERNMENT
p3510
g2
(g3
(I0
tp3511
g5
tp3512
Rp3513
(I1
(I2
tp3514
g12
I00
S'SLXBP\xae\x1fC'
p3515
tp3516
bsVDATANG INTL POWER GEN CO
p3517
g2
(g3
(I0
tp3518
g5
tp3519
Rp3520
(I1
(I2
tp3521
g12
I00
S'\x92\xfduB\x13\xb0\x04C'
p3522
tp3523
bsVRINGHALS AB
p3524
g2
(g3
(I0
tp3525
g5
tp3526
Rp3527
(I1
(I2
tp3528
g12
I00
S'\xe1\xdc\x96\xc2<\x1fMC'
p3529
tp3530
bsVMINSKENERGO
p3531
g2
(g3
(I0
tp3532
g5
tp3533
Rp3534
(I1
(I2
tp3535
g12
I00
S')\x18/C\x1a\xe8@C'
p3536
tp3537
bsVRAO UES ROSSII
p3538
g2
(g3
(I0
tp3539
g5
tp3540
Rp3541
(I1
(I2
tp3542
g12
I00
S"\x91\xdegC'+N\xc0"
p3543
tp3544
bsVSOUTHERN CALIF EDISON CO
p3545
g2
(g3
(I0
tp3546
g5
tp3547
Rp3548
(I1
(I2
tp3549
g12
I00
S'?&J\xc3\x91\xfe\x84A'
p3550
tp3551
bsVEXXONMOBIL CORP
p3552
g2
(g3
(I0
tp3553
g5
tp3554
Rp3555
(I1
(I2
tp3556
g12
I00
S'\xcf\xe4\x03\xc3\x93k\xea@'
p3557
tp3558
bsVESFAHAN REGIONAL ELEC POWER CO
p3559
g2
(g3
(I0
tp3560
g5
tp3561
Rp3562
(I1
(I2
tp3563
g12
I00
S'Cc\x00\xc2I\xa0+C'
p3564
tp3565
bsS'OM'
p3566
g2
(g3
(I0
tp3567
g5
tp3568
Rp3569
(I1
(I2
tp3570
g12
I00
S'j\xb1_B\xc5\x19\xacA'
p3571
tp3572
bsVTRACTEBEL POWER INC
p3573
g2
(g3
(I0
tp3574
g5
tp3575
Rp3576
(I1
(I2
tp3577
g12
I00
S'\x88\x17L\xc3\xfb\xb4\x0cB'
p3578
tp3579
bsVYAKUTSKENERGO
p3580
g2
(g3
(I0
tp3581
g5
tp3582
Rp3583
(I1
(I2
tp3584
g12
I00
S'|\x1a\x86C\t\x16\x85\xc1'
p3585
tp3586
bsVHAFSLUND ASA
p3587
g2
(g3
(I0
tp3588
g5
tp3589
Rp3590
(I1
(I2
tp3591
g12
I00
S'\xf0x\xee\xc1\x8b;qC'
p3592
tp3593
bsVHUADIAN POWER INTL CORP
p3594
g2
(g3
(I0
tp3595
g5
tp3596
Rp3597
(I1
(I2
tp3598
g12
I00
S'\x17\x8e\x8bB\xc5\x82\x02C'
p3599
tp3600
bsVEDISON MISSION ENERGY
p3601
g2
(g3
(I0
tp3602
g5
tp3603
Rp3604
(I1
(I2
tp3605
g12
I00
S'\xf0H\x0c\xc3\xa5g@\xc1'
p3606
tp3607
bsS'HR'
p3608
g2
(g3
(I0
tp3609
g5
tp3610
Rp3611
(I1
(I2
tp3612
g12
I00
S'33sAff4B'
p3613
tp3614
bsVFUJIAN ELECTRIC POWER CORP
p3615
g2
(g3
(I0
tp3616
g5
tp3617
Rp3618
(I1
(I2
tp3619
g12
I00
S'oG\x8bB4\xec\x0cC'
p3620
tp3621
bsS'HU'
p3622
g2
(g3
(I0
tp3623
g5
tp3624
Rp3625
(I1
(I2
tp3626
g12
I00
S'\xc4\x06\x9cAe\xa6<B'
p3627
tp3628
bsVGUJARAT ELECTRICITY BOARD
p3629
g2
(g3
(I0
tp3630
g5
tp3631
Rp3632
(I1
(I2
tp3633
g12
I00
S'\\\xb3dCS\x84\x8dB'
p3634
tp3635
bsVDAMODAR VALLEY CORP
p3636
g2
(g3
(I0
tp3637
g5
tp3638
Rp3639
(I1
(I2
tp3640
g12
I00
S'\x8d\xe8]C\xa6\x0b\xbfB'
p3641
tp3642
bsVNUCLEAR POWER QINSHAN JV CO
p3643
g2
(g3
(I0
tp3644
g5
tp3645
Rp3646
(I1
(I2
tp3647
g12
I00
S'\xcb\xa8\x92B`\xae%C'
p3648
tp3649
bsVLOS ANGELES DEPT WTR PWR
p3650
g2
(g3
(I0
tp3651
g5
tp3652
Rp3653
(I1
(I2
tp3654
g12
I00
S'\x90\xbb?\xc3\xee$P@'
p3655
tp3656
bsVGUANGDONG NUCLEAR POWER CO LTD
p3657
g2
(g3
(I0
tp3658
g5
tp3659
Rp3660
(I1
(I2
tp3661
g12
I00
S't\xa2dBjl\x1bC'
p3662
tp3663
bsVFORTUM POWER & HEAT
p3664
g2
(g3
(I0
tp3665
g5
tp3666
Rp3667
(I1
(I2
tp3668
g12
I00
S'\xdc\x15+\xc1\xf1\xe3wC'
p3669
tp3670
bsVPPL GENERATION LLC
p3671
g2
(g3
(I0
tp3672
g5
tp3673
Rp3674
(I1
(I2
tp3675
g12
I00
S'(\x998\xc3\xac\xccZ@'
p3676
tp3677
bsVTEOLLISUUDEN VOIMA OY (TVO)
p3678
g2
(g3
(I0
tp3679
g5
tp3680
Rp3681
(I1
(I2
tp3682
g12
I00
S'F\x12=\xc2]CbC'
p3683
tp3684
bsVKRASNOYARSKENERGO
p3685
g2
(g3
(I0
tp3686
g5
tp3687
Rp3688
(I1
(I2
tp3689
g12
I00
S'm\xb5wC\xc9/\xa8\xbe'
p3690
tp3691
bsVTNB HIDRO SDN BHD
p3692
g2
(g3
(I0
tp3693
g5
tp3694
Rp3695
(I1
(I2
tp3696
g12
I00
S'E\x17\x08C\x1a\x85NC'
p3697
tp3698
bsVCENTRAL NUCLEAR DE ASCO
p3699
g2
(g3
(I0
tp3700
g5
tp3701
Rp3702
(I1
(I2
tp3703
g12
I00
S'\x17\xa5\xd9B\x8e\x81"\xc2'
p3704
tp3705
bsVJP ELEKTROPRIVREDA BIH
p3706
g2
(g3
(I0
tp3707
g5
tp3708
Rp3709
(I1
(I2
tp3710
g12
I00
S'O\xf3;AH\xe1tC'
p3711
tp3712
bsVPUERTO RICO ELEC PWR AUTH
p3713
g2
(g3
(I0
tp3714
g5
tp3715
Rp3716
(I1
(I2
tp3717
g12
I00
S'\xdeZH\xc3S\\\xbb@'
p3718
tp3719
bsVBANGLADESH POWER DEV BOARD
p3720
g2
(g3
(I0
tp3721
g5
tp3722
Rp3723
(I1
(I2
tp3724
g12
I00
S'\x8b\x00xC\xd4\xc0\xf8B'
p3725
tp3726
bsVMIDAMERICAN ENERGY CO
p3727
g2
(g3
(I0
tp3728
g5
tp3729
Rp3730
(I1
(I2
tp3731
g12
I00
S'q]5\xc3\x83\xe6\x06>'
p3732
tp3733
bsVBC HYDRO
p3734
g2
(g3
(I0
tp3735
g5
tp3736
Rp3737
(I1
(I2
tp3738
g12
I00
S'^DZ\xc3 A\xd1B'
p3739
tp3740
bsVLOY YANG POWER MANAGEMENT
p3741
g2
(g3
(I0
tp3742
g5
tp3743
Rp3744
(I1
(I2
tp3745
g12
I00
S'N\x87H?\x9dd\xa2\xc2'
p3746
tp3747
bsVCHUGOKU ELECTRIC POWER CO
p3748
g2
(g3
(I0
tp3749
g5
tp3750
Rp3751
(I1
(I2
tp3752
g12
I00
S'\xb3\xe3\x82CV\xf4\x84\xc2'
p3753
tp3754
bsVGULF POWER CO
p3755
g2
(g3
(I0
tp3756
g5
tp3757
Rp3758
(I1
(I2
tp3759
g12
I00
S'PBK\xc3\xb5\xec\xa6\xc1'
p3760
tp3761
bsVCIA HIDRO DO SAO FRANCISCO
p3762
g2
(g3
(I0
tp3763
g5
tp3764
Rp3765
(I1
(I2
tp3766
g12
I00
S'\xbe~\xb5\xc2\\\x8a\x9eB'
p3767
tp3768
bsVOMAHA PUBLIC POWER DIST
p3769
g2
(g3
(I0
tp3770
g5
tp3771
Rp3772
(I1
(I2
tp3773
g12
I00
S'\xe8eY\xc3\x8c\xbf\x13@'
p3774
tp3775
bsVSTATE DEV & INVESTMENT CORP
p3776
g2
(g3
(I0
tp3777
g5
tp3778
Rp3779
(I1
(I2
tp3780
g12
I00
S'\x8d\xa78B\x00n\x12C'
p3781
tp3782
bsVSAVANNAH ELEC & POWER CO
p3783
g2
(g3
(I0
tp3784
g5
tp3785
Rp3786
(I1
(I2
tp3787
g12
I00
S'\xacI]\xc3Y\x15\x13A'
p3788
tp3789
bsVVOLZHSKAYA (LENIN) HPS
p3790
g2
(g3
(I0
tp3791
g5
tp3792
Rp3793
(I1
(I2
tp3794
g12
I00
S'\xd3?MC\x9b\xc4\x14\xc2'
p3795
tp3796
bsVCHINA THREE GORGES PROJ CORP
p3797
g2
(g3
(I0
tp3798
g5
tp3799
Rp3800
(I1
(I2
tp3801
g12
I00
S'K_\x81B\x0b\xe7\x00C'
p3802
tp3803
bsVEMGESA SA ESP
p3804
g2
(g3
(I0
tp3805
g5
tp3806
Rp3807
(I1
(I2
tp3808
g12
I00
S'\x0e\x12\x07\xc3nT\xefB'
p3809
tp3810
bsVFIRSTENERGY GENERATION
p3811
g2
(g3
(I0
tp3812
g5
tp3813
Rp3814
(I1
(I2
tp3815
g12
I00
S'_\x0cA\xc3\xa8\x83\xf0A'
p3816
tp3817
bsVEVER POWER IPP CO LTD
p3818
g2
(g3
(I0
tp3819
g5
tp3820
Rp3821
(I1
(I2
tp3822
g12
I00
S'\xa3z1B\xf5\xd6\xf6\xc2'
p3823
tp3824
bsS'UZ'
p3825
g2
(g3
(I0
tp3826
g5
tp3827
Rp3828
(I1
(I2
tp3829
g12
I00
S'\xa7+\x81B\x8d\x82%B'
p3830
tp3831
bsVSTATKRAFT SF
p3832
g2
(g3
(I0
tp3833
g5
tp3834
Rp3835
(I1
(I2
tp3836
g12
I00
S'\xae\\\x04\xc2\xca\xafaC'
p3837
tp3838
bsS'US'
p3839
g2
(g3
(I0
tp3840
g5
tp3841
Rp3842
(I1
(I2
tp3843
g12
I00
S'\x00m\xbf\xc2h\\\x14B'
p3844
tp3845
bsVNORTHWEST CHINA ELECTRIC POWER
p3846
g2
(g3
(I0
tp3847
g5
tp3848
Rp3849
(I1
(I2
tp3850
g12
I00
S'\xf8\xdd\\B\x80$\x04C'
p3851
tp3852
bsVIBERDROLA SA
p3853
g2
(g3
(I0
tp3854
g5
tp3855
Rp3856
(I1
(I2
tp3857
g12
I00
S'S\x00\xc7BZ\xe0\x88A'
p3858
tp3859
bsVCEYLON ELECTRICITY BOARD
p3860
g2
(g3
(I0
tp3861
g5
tp3862
Rp3863
(I1
(I2
tp3864
g12
I00
S'+\x90\x9cB\x1axWC'
p3865
tp3866
bsS'UA'
p3867
g2
(g3
(I0
tp3868
g5
tp3869
Rp3870
(I1
(I2
tp3871
g12
I00
S'\x1cS\xf9A\x8a\x84AB'
p3872
tp3873
bsVAES ANDES
p3874
g2
(g3
(I0
tp3875
g5
tp3876
Rp3877
(I1
(I2
tp3878
g12
I00
S'\xa4\xec\x1e\xc3\x04\x8a5\xc3'
p3879
tp3880
bsVGMS POWER PUBLIC CO LTD
p3881
g2
(g3
(I0
tp3882
g5
tp3883
Rp3884
(I1
(I2
tp3885
g12
I00
S'Il\xa3B\xe1)\xe6B'
p3886
tp3887
bsVIGNALINOS ATOMINE ELEKTRINE VI
p3888
g2
(g3
(I0
tp3889
g5
tp3890
Rp3891
(I1
(I2
tp3892
g12
I00
S'\x0f\xd7\x03\xc2\xdf\x9cxC'
p3893
tp3894
bsVORENBURGENERGO
p3895
g2
(g3
(I0
tp3896
g5
tp3897
Rp3898
(I1
(I2
tp3899
g12
I00
S'[\x00\x80C\x80"\x18\xc1'
p3900
tp3901
bsVSAKENERGOGENERATSIA
p3902
g2
(g3
(I0
tp3903
g5
tp3904
Rp3905
(I1
(I2
tp3906
g12
I00
S'p\xe6CC\xdb\xee\x16C'
p3907
tp3908
bsVPT PLN PERSERO
p3909
g2
(g3
(I0
tp3910
g5
tp3911
Rp3912
(I1
(I2
tp3913
g12
I00
S't\xb4\xe0B)mDA'
p3914
tp3915
bsVEDIPOWER SPA
p3916
g2
(g3
(I0
tp3917
g5
tp3918
Rp3919
(I1
(I2
tp3920
g12
I00
S'\xff\xc7\xa1B\xd4\xa1r\xc2'
p3921
tp3922
bsVDEVLET SU ISLERI (DSI)
p3923
g2
(g3
(I0
tp3924
g5
tp3925
Rp3926
(I1
(I2
tp3927
g12
I00
S"/'PB\xd2\xfc\\C"
p3928
tp3929
bsVHOKKAIDO ELECTRIC POWER CO INC
p3930
g2
(g3
(I0
tp3931
g5
tp3932
Rp3933
(I1
(I2
tp3934
g12
I00
S'\xe1\xdeTC\xb2l\xc2\xc2'
p3935
tp3936
bsVSLOVENSKE ELEKTRARNE AS (SE)
p3937
g2
(g3
(I0
tp3938
g5
tp3939
Rp3940
(I1
(I2
tp3941
g12
I00
S"\x0c\xe2'CJV\xaf@"
p3942
tp3943
bsVNOVOSIBIRSKENERGO
p3944
g2
(g3
(I0
tp3945
g5
tp3946
Rp3947
(I1
(I2
tp3948
g12
I00
S'5\x17oC\xe8\xfbK\xc2'
p3949
tp3950
bsVVERBUND-AUSTRIAN HYDRO POWER
p3951
g2
(g3
(I0
tp3952
g5
tp3953
Rp3954
(I1
(I2
tp3955
g12
I00
S'S\x9a"C51\xa4A'
p3956
tp3957
bsS'NI'
p3958
g2
(g3
(I0
tp3959
g5
tp3960
Rp3961
(I1
(I2
tp3962
g12
I00
S'\x1aj\xaa\xc2\xbe\xd8MA'
p3963
tp3964
bsVUTTARANCHAL JAL VIDYUT NIGAM
p3965
g2
(g3
(I0
tp3966
g5
tp3967
Rp3968
(I1
(I2
tp3969
g12
I00
S'\x84elCF\xfd\x83B'
p3970
tp3971
bsS'NL'
p3972
g2
(g3
(I0
tp3973
g5
tp3974
Rp3975
(I1
(I2
tp3976
g12
I00
S'\rR\xa9@\xd1\x87PB'
p3977
tp3978
bsS'NO'
p3979
g2
(g3
(I0
tp3980
g5
tp3981
Rp3982
(I1
(I2
tp3983
g12
I00
S'\xce\x80\x07AZ\xe3qB'
p3984
tp3985
bsVELECTROPERU SA
p3986
g2
(g3
(I0
tp3987
g5
tp3988
Rp3989
(I1
(I2
tp3990
g12
I00
S'\xb75t\xc3t\xbb\xde\xc2'
p3991
tp3992
bsVWISCONSIN PUBLIC SERVICE
p3993
g2
(g3
(I0
tp3994
g5
tp3995
Rp3996
(I1
(I2
tp3997
g12
I00
S"\x15'Y\xc3V\xe0\xcf@"
p3998
tp3999
bsVENTERGY ASSET MANAGEMENT
p4000
g2
(g3
(I0
tp4001
g5
tp4002
Rp4003
(I1
(I2
tp4004
g12
I00
S'\xae\tQ\xc3\xa8HBA'
p4005
tp4006
bsS'NG'
p4007
g2
(g3
(I0
tp4008
g5
tp4009
Rp4010
(I1
(I2
tp4011
g12
I00
S'\xef\xcd\nA\xdeO\x11A'
p4012
tp4013
bsS'NZ'
p4014
g2
(g3
(I0
tp4015
g5
tp4016
Rp4017
(I1
(I2
tp4018
g12
I00
S'\xcf\xe2.C,\x9a#\xc2'
p4019
tp4020
bsVTUCSON ELECTRIC POWER
p4021
g2
(g3
(I0
tp4022
g5
tp4023
Rp4024
(I1
(I2
tp4025
g12
I00
S'\xe7\x9eV\xc3\xc2E\x92A'
p4026
tp4027
bsVSTAVROPOL SDEPS
p4028
g2
(g3
(I0
tp4029
g5
tp4030
Rp4031
(I1
(I2
tp4032
g12
I00
S'8\xee\x86C\xfc\xad\xeb\xbf'
p4033
tp4034
bsS'NP'
p4035
g2
(g3
(I0
tp4036
g5
tp4037
Rp4038
(I1
(I2
tp4039
g12
I00
S'~?\xa8B\xab(\xe3A'
p4040
tp4041
bsVJIANGSU NUCLEAR POWER CORP
p4042
g2
(g3
(I0
tp4043
g5
tp4044
Rp4045
(I1
(I2
tp4046
g12
I00
S'f\x8b\x85B\xa5;\x12C'
p4047
tp4048
bsVDNIPROHYDROENERGO
p4049
g2
(g3
(I0
tp4050
g5
tp4051
Rp4052
(I1
(I2
tp4053
g12
I00
S'>i\xe8B\xf4x\xeb\xc2'
p4054
tp4055
bsVNORTHERN STATES POWER CO (MN)
p4056
g2
(g3
(I0
tp4057
g5
tp4058
Rp4059
(I1
(I2
tp4060
g12
I00
S'X\x7fC\xc3n\xfd\xae@'
p4061
tp4062
bsVHYDRO TASMANIA
p4063
g2
(g3
(I0
tp4064
g5
tp4065
Rp4066
(I1
(I2
tp4067
g12
I00
S'\x83\xe9\x1fA\xfco\x9d\xc2'
p4068
tp4069
bsVCOMPETITIVE POWER VENTURES
p4070
g2
(g3
(I0
tp4071
g5
tp4072
Rp4073
(I1
(I2
tp4074
g12
I00
S'aaX\xc3`T\xb7A'
p4075
tp4076
bsVSHANDONG ZHONGHUA POWER CO LTD
p4077
g2
(g3
(I0
tp4078
g5
tp4079
Rp4080
(I1
(I2
tp4081
g12
I00
S'%\x92_B\x16c\x0eC'
p4082
tp4083
bsVDUNAMENTI EROMU RT
p4084
g2
(g3
(I0
tp4085
g5
tp4086
Rp4087
(I1
(I2
tp4088
g12
I00
S'\xcd\x88\x9dBz\x9e\x0b\xc3'
p4089
tp4090
bsVINTERSTATE POWER AND LIGHT CO
p4091
g2
(g3
(I0
tp4092
g5
tp4093
Rp4094
(I1
(I2
tp4095
g12
I00
S'\xfapD\xc3t\xfb\xab\xc1'
p4096
tp4097
bsVINDIANAPOLIS POWER & LT
p4098
g2
(g3
(I0
tp4099
g5
tp4100
Rp4101
(I1
(I2
tp4102
g12
I00
S'H\x0f>\xc3 \x8b\x91\xc1'
p4103
tp4104
bsVBASHKIRENERGO
p4105
g2
(g3
(I0
tp4106
g5
tp4107
Rp4108
(I1
(I2
tp4109
g12
I00
S'\x9cesC\xff\x92I\xc1'
p4110
tp4111
bsVCS ENERGY CORP LTD
p4112
g2
(g3
(I0
tp4113
g5
tp4114
Rp4115
(I1
(I2
tp4116
g12
I00
S'`\x82\x08A=(\xd4\xc2'
p4117
tp4118
bsVSUEZ-TRACTEBEL SA
p4119
g2
(g3
(I0
tp4120
g5
tp4121
Rp4122
(I1
(I2
tp4123
g12
I00
S'\x91\x93+\xc1\xbf\xd0\xdcB'
p4124
tp4125
bsVENIPOWER
p4126
g2
(g3
(I0
tp4127
g5
tp4128
Rp4129
(I1
(I2
tp4130
g12
I00
S'\x8d\x93\xbaB\xe3S\x82\xc2'
p4131
tp4132
bsVTEXAS INDEPENDENT ENERGY LP
p4133
g2
(g3
(I0
tp4134
g5
tp4135
Rp4136
(I1
(I2
tp4137
g12
I00
S'\xfa\x0f^\xc3\x86\x16\x8c?'
p4138
tp4139
bsVGAS NATURAL SDG SA
p4140
g2
(g3
(I0
tp4141
g5
tp4142
Rp4143
(I1
(I2
tp4144
g12
I00
S'\xd7,\xe1B\xbf\x8f\xceA'
p4145
tp4146
bsVENERGI E2 A/S
p4147
g2
(g3
(I0
tp4148
g5
tp4149
Rp4150
(I1
(I2
tp4151
g12
I00
S'\xed\xc0\x08C\x04\xab\xefB'
p4152
tp4153
bsVWISCONSIN POWER & LIGHT CO
p4154
g2
(g3
(I0
tp4155
g5
tp4156
Rp4157
(I1
(I2
tp4158
g12
I00
S'\xecUS\xc3]p\xe2A'
p4159
tp4160
bsVSVERDLOVENERGO
p4161
g2
(g3
(I0
tp4162
g5
tp4163
Rp4164
(I1
(I2
tp4165
g12
I00
S'1\xceyC\x14\xb3\x90\xc1'
p4166
tp4167
bsVSAN ANTONIO PUB SERV BD
p4168
g2
(g3
(I0
tp4169
g5
tp4170
Rp4171
(I1
(I2
tp4172
g12
I00
S'e\xbeE\xc3)\xf1\x84\xc0'
p4173
tp4174
bsVSHANDONG ELEC POWER GROUP CORP
p4175
g2
(g3
(I0
tp4176
g5
tp4177
Rp4178
(I1
(I2
tp4179
g12
I00
S'\xa7o]B\xaak\xf7B'
p4180
tp4181
bsVFPC HUAYANG ZHANGZHOU POWER
p4182
g2
(g3
(I0
tp4183
g5
tp4184
Rp4185
(I1
(I2
tp4186
g12
I00
S'\xcb%5B\x89\x0c\x0cC'
p4187
tp4188
bsVITAIPU BINAC BRAZIL/PARAGUAY
p4189
g2
(g3
(I0
tp4190
g5
tp4191
Rp4192
(I1
(I2
tp4193
g12
I00
S'j\x98\xb8\xc2\xe6n\x8aB'
p4194
tp4195
bsVPUBLIC SERVICE NEW MEXICO
p4196
g2
(g3
(I0
tp4197
g5
tp4198
Rp4199
(I1
(I2
tp4200
g12
I00
S'\x85\x86Z\xc3\xa7.\xcc\xc0'
p4201
tp4202
bsVSHENZHEN ENERGY GROUP CORP LTD
p4203
g2
(g3
(I0
tp4204
g5
tp4205
Rp4206
(I1
(I2
tp4207
g12
I00
S'\x05.RBw\xb4\x12C'
p4208
tp4209
bsVCM ARGENTINO-PARAGUAY R PARANA
p4210
g2
(g3
(I0
tp4211
g5
tp4212
Rp4213
(I1
(I2
tp4214
g12
I00
S'\x0eyT\xc3yD\n\xc3'
p4215
tp4216
bsVKARNATAKA POWER CORP LTD
p4217
g2
(g3
(I0
tp4218
g5
tp4219
Rp4220
(I1
(I2
tp4221
g12
I00
S'\xf1-WC\x0f\x91\xa0B'
p4222
tp4223
bsVMAZANDARAN REGIONAL ELEC POWER
p4224
g2
(g3
(I0
tp4225
g5
tp4226
Rp4227
(I1
(I2
tp4228
g12
I00
S'En\n\xc2\xfe\xd7\xefB'
p4229
tp4230
bsS'CO'
p4231
g2
(g3
(I0
tp4232
g5
tp4233
Rp4234
(I1
(I2
tp4235
g12
I00
S'<\x98\x94\xc2\x8dD\x92@'
p4236
tp4237
bsS'CN'
p4238
g2
(g3
(I0
tp4239
g5
tp4240
Rp4241
(I1
(I2
tp4242
g12
I00
S'\x0bd\xd0BWr\x0fB'
p4243
tp4244
bsVBASIN ELEC POWER COOP
p4245
g2
(g3
(I0
tp4246
g5
tp4247
Rp4248
(I1
(I2
tp4249
g12
I00
S'GQY\xc3\xbcT3A'
p4250
tp4251
bsVWIENER STADTWERKE ELEK
p4252
g2
(g3
(I0
tp4253
g5
tp4254
Rp4255
(I1
(I2
tp4256
g12
I00
S'\xb6\xd7\x1fCm\x92\xb2B'
p4257
tp4258
bsVTHE HONGKONG ELECTRIC CO LTD
p4259
g2
(g3
(I0
tp4260
g5
tp4261
Rp4262
(I1
(I2
tp4263
g12
I00
S'\x9b\x97CB\xe9\xad\x02C'
p4264
tp4265
bsS'TW'
p4266
g2
(g3
(I0
tp4267
g5
tp4268
Rp4269
(I1
(I2
tp4270
g12
I00
S'\xc9\xeb\xf1B\x1d\x95\xbdA'
p4271
tp4272
bsVDOW CHEMICAL CO
p4273
g2
(g3
(I0
tp4274
g5
tp4275
Rp4276
(I1
(I2
tp4277
g12
I00
S'\n\xda\x12\xc3\x8cD\x9d\xc0'
p4278
tp4279
bsS'TR'
p4280
g2
(g3
(I0
tp4281
g5
tp4282
Rp4283
(I1
(I2
tp4284
g12
I00
S')\xf9\x0cB\xe0\xda\x1bB'
p4285
tp4286
bsS'TN'
p4287
g2
(g3
(I0
tp4288
g5
tp4289
Rp4290
(I1
(I2
tp4291
g12
I00
S'\x99\x99\x18A4\x8c\x07B'
p4292
tp4293
bsVDOMINION NUCLEAR CONNECTICUT
p4294
g2
(g3
(I0
tp4295
g5
tp4296
Rp4297
(I1
(I2
tp4298
g12
I00
S'3\x95R\xc3\xc6\xca7\xc1'
p4299
tp4300
bsS'TM'
p4301
g2
(g3
(I0
tp4302
g5
tp4303
Rp4304
(I1
(I2
tp4305
g12
I00
S'\xa19nB\xfe\xe0\x1bB'
p4306
tp4307
bsS'TJ'
p4308
g2
(g3
(I0
tp4309
g5
tp4310
Rp4311
(I1
(I2
tp4312
g12
I00
S'\\\x8d\x8eB\xb3q\x1bB'
p4313
tp4314
bsS'TH'
p4315
g2
(g3
(I0
tp4316
g5
tp4317
Rp4318
(I1
(I2
tp4319
g12
I00
S'.\xfc\xc9B\xa7\xeb}A'
p4320
tp4321
bsVSEMINOLE ELECTRIC COOP
p4322
g2
(g3
(I0
tp4323
g5
tp4324
Rp4325
(I1
(I2
tp4326
g12
I00
S'*\xb2[\xc3Z\x7f\x9aA'
p4327
tp4328
bsVBOGUTCHANGESSTROY OJSC
p4329
g2
(g3
(I0
tp4330
g5
tp4331
Rp4332
(I1
(I2
tp4333
g12
I00
S'sB\x80Cj?\xee\xbe'
p4334
tp4335
bsVCHINA NATIONAL OFFSHORE OIL CO
p4336
g2
(g3
(I0
tp4337
g5
tp4338
Rp4339
(I1
(I2
tp4340
g12
I00
S'Z\xb7<B\x01\x1a\x07C'
p4341
tp4342
bsVLOWER COLORADO RIVER AUTH
p4343
g2
(g3
(I0
tp4344
g5
tp4345
Rp4346
(I1
(I2
tp4347
g12
I00
S'\x8b\x1aC\xc3\x80\x99\x8b\xc1'
p4348
tp4349
bsS'AE'
p4350
g2
(g3
(I0
tp4351
g5
tp4352
Rp4353
(I1
(I2
tp4354
g12
I00
S'*dWB\x82d\xbbA'
p4355
tp4356
bsVNRG ENERGY INC
p4357
g2
(g3
(I0
tp4358
g5
tp4359
Rp4360
(I1
(I2
tp4361
g12
I00
S'\xdaQ<\xc3y\x9a\xc9@'
p4362
tp4363
bsS'AM'
p4364
g2
(g3
(I0
tp4365
g5
tp4366
Rp4367
(I1
(I2
tp4368
g12
I00
S"\x1b'4B\xc2F B"
p4369
tp4370
bsS'AL'
p4371
g2
(g3
(I0
tp4372
g5
tp4373
Rp4374
(I1
(I2
tp4375
g12
I00
S'\xbeX\xa1A\x03\x9d$B'
p4376
tp4377
bsVMINISTRY OF ELECTRICITY
p4378
g2
(g3
(I0
tp4379
g5
tp4380
Rp4381
(I1
(I2
tp4382
g12
I00
S'O\xb6*B:\x9cTC'
p4383
tp4384
bsS'AR'
p4385
g2
(g3
(I0
tp4386
g5
tp4387
Rp4388
(I1
(I2
tp4389
g12
I00
S'yw~\xc2\x15\xaa\x19\xc2'
p4390
tp4391
bsS'AU'
p4392
g2
(g3
(I0
tp4393
g5
tp4394
Rp4395
(I1
(I2
tp4396
g12
I00
S'o\xc6\x05C\xf81\xca\xc1'
p4397
tp4398
bsS'AT'
p4399
g2
(g3
(I0
tp4400
g5
tp4401
Rp4402
(I1
(I2
tp4403
g12
I00
S'\x18\xcdhA\x9f\x10>B'
p4404
tp4405
bsVAEP TEXAS CENTRAL CO
p4406
g2
(g3
(I0
tp4407
g5
tp4408
Rp4409
(I1
(I2
tp4410
g12
I00
S'\xdaGN\xc3\xbbN \xc1'
p4411
tp4412
bsS'AZ'
p4413
g2
(g3
(I0
tp4414
g5
tp4415
Rp4416
(I1
(I2
tp4417
g12
I00
S'\xc6N>B\x8a\x92 B'
p4418
tp4419
bsVFLORIDA POWER & LIGHT CO
p4420
g2
(g3
(I0
tp4421
g5
tp4422
Rp4423
(I1
(I2
tp4424
g12
I00
S'b\xde8\xc3!\x19\xd8\xbf'
p4425
tp4426
bsVSALT RIVER PROJECT
p4427
g2
(g3
(I0
tp4428
g5
tp4429
Rp4430
(I1
(I2
tp4431
g12
I00
S'\x11\xb4C\xc3\x9d)\xb1>'
p4432
tp4433
bsVHYDRO-QUEBEC
p4434
g2
(g3
(I0
tp4435
g5
tp4436
Rp4437
(I1
(I2
tp4438
g12
I00
S'\x10\xa3N\xc3\x10\xfc\xabB'
p4439
tp4440
bsVORISSA HYDRO POWER CORP (OHPC)
p4441
g2
(g3
(I0
tp4442
g5
tp4443
Rp4444
(I1
(I2
tp4445
g12
I00
S'\x7f\xba.C\xf3=\x80B'
p4446
tp4447
bsVERARING ENERGY
p4448
g2
(g3
(I0
tp4449
g5
tp4450
Rp4451
(I1
(I2
tp4452
g12
I00
S'9J\xf4=\xd2<\x86\xc2'
p4453
tp4454
bsVPSEG GLOBAL
p4455
g2
(g3
(I0
tp4456
g5
tp4457
Rp4458
(I1
(I2
tp4459
g12
I00
S'g\xd5%\xc39\x80\x9d\xc0'
p4460
tp4461
bsVRWE RHEINBRAUN
p4462
g2
(g3
(I0
tp4463
g5
tp4464
Rp4465
(I1
(I2
tp4466
g12
I00
S'\xa4-\x95\xc2\x99\xf3P\xc2'
p4467
tp4468
bsVKOLENERGO
p4469
g2
(g3
(I0
tp4470
g5
tp4471
Rp4472
(I1
(I2
tp4473
g12
I00
S'E\xba\x83C\xd9g\x1d@'
p4474
tp4475
bsVESKOM
p4476
g2
(g3
(I0
tp4477
g5
tp4478
Rp4479
(I1
(I2
tp4480
g12
I00
S'i\x1d\x19B\x95\x9f;\xc3'
p4481
tp4482
bsS'DK'
p4483
g2
(g3
(I0
tp4484
g5
tp4485
Rp4486
(I1
(I2
tp4487
g12
I00
S'P\x07\x18AA\x0eaB'
p4488
tp4489
bsVGENPOWER LLC
p4490
g2
(g3
(I0
tp4491
g5
tp4492
Rp4493
(I1
(I2
tp4494
g12
I00
S'9\xc1]\xc3\xc6\xcd\xaa@'
p4495
tp4496
bs.